
Camera_Test.elf:     file format elf32-littlenios2
Camera_Test.elf
architecture: nios2:r1, flags 0x00000112:
EXEC_P, HAS_SYMS, D_PAGED
start address 0x000401c0

Program Header:
    LOAD off    0x00001000 vaddr 0x00040000 paddr 0x00040000 align 2**12
         filesz 0x00000020 memsz 0x00000020 flags r-x
    LOAD off    0x00001020 vaddr 0x00040020 paddr 0x00040020 align 2**12
         filesz 0x0001d1f0 memsz 0x0001d1f0 flags r-x
    LOAD off    0x0001e210 vaddr 0x0005d210 paddr 0x0005f548 align 2**12
         filesz 0x00002338 memsz 0x00002338 flags rw-
    LOAD off    0x00020880 vaddr 0x00061880 paddr 0x00061880 align 2**12
         filesz 0x00000000 memsz 0x0000015c flags rw-

Sections:
Idx Name          Size      VMA       LMA       File off  Algn
  0 .entry        00000020  00040000  00040000  00001000  2**5
                  CONTENTS, ALLOC, LOAD, READONLY, CODE
  1 .exceptions   000001a0  00040020  00040020  00001020  2**2
                  CONTENTS, ALLOC, LOAD, READONLY, CODE
  2 .text         0001bd54  000401c0  000401c0  000011c0  2**2
                  CONTENTS, ALLOC, LOAD, READONLY, CODE
  3 .rodata       000012fc  0005bf14  0005bf14  0001cf14  2**2
                  CONTENTS, ALLOC, LOAD, READONLY, DATA
  4 .rwdata       00002338  0005d210  0005f548  0001e210  2**2
                  CONTENTS, ALLOC, LOAD, DATA, SMALL_DATA
  5 .bss          0000015c  00061880  00061880  00020880  2**2
                  ALLOC, SMALL_DATA
  6 .onchip_memory2 00000000  000619dc  000619dc  00020548  2**0
                  CONTENTS
  7 .comment      00000023  00000000  00000000  00020548  2**0
                  CONTENTS, READONLY
  8 .debug_aranges 00001190  00000000  00000000  00020570  2**3
                  CONTENTS, READONLY, DEBUGGING
  9 .debug_info   0002c095  00000000  00000000  00021700  2**0
                  CONTENTS, READONLY, DEBUGGING
 10 .debug_abbrev 0000b0a7  00000000  00000000  0004d795  2**0
                  CONTENTS, READONLY, DEBUGGING
 11 .debug_line   0000e6e3  00000000  00000000  0005883c  2**0
                  CONTENTS, READONLY, DEBUGGING
 12 .debug_frame  000030a8  00000000  00000000  00066f20  2**2
                  CONTENTS, READONLY, DEBUGGING
 13 .debug_str    000055b4  00000000  00000000  00069fc8  2**0
                  CONTENTS, READONLY, DEBUGGING
 14 .debug_loc    0001ab79  00000000  00000000  0006f57c  2**0
                  CONTENTS, READONLY, DEBUGGING
 15 .debug_alt_sim_info 00000060  00000000  00000000  0008a0f8  2**2
                  CONTENTS, READONLY, DEBUGGING
 16 .debug_ranges 00001da0  00000000  00000000  0008a158  2**3
                  CONTENTS, READONLY, DEBUGGING
 17 .thread_model 00000003  00000000  00000000  0008ff26  2**0
                  CONTENTS, READONLY
 18 .cpu          0000000a  00000000  00000000  0008ff29  2**0
                  CONTENTS, READONLY
 19 .qsys         00000001  00000000  00000000  0008ff33  2**0
                  CONTENTS, READONLY
 20 .simulation_enabled 00000001  00000000  00000000  0008ff34  2**0
                  CONTENTS, READONLY
 21 .sysid_hash   00000004  00000000  00000000  0008ff35  2**0
                  CONTENTS, READONLY
 22 .sysid_base   00000004  00000000  00000000  0008ff39  2**0
                  CONTENTS, READONLY
 23 .sysid_time   00000004  00000000  00000000  0008ff3d  2**0
                  CONTENTS, READONLY
 24 .stderr_dev   00000009  00000000  00000000  0008ff41  2**0
                  CONTENTS, READONLY
 25 .stdin_dev    00000009  00000000  00000000  0008ff4a  2**0
                  CONTENTS, READONLY
 26 .stdout_dev   00000009  00000000  00000000  0008ff53  2**0
                  CONTENTS, READONLY
 27 .sopc_system_name 00000008  00000000  00000000  0008ff5c  2**0
                  CONTENTS, READONLY
 28 .quartus_project_dir 00000033  00000000  00000000  0008ff64  2**0
                  CONTENTS, READONLY
 29 .jdi          00006bf5  00000000  00000000  0008ff97  2**0
                  CONTENTS, READONLY
 30 .sopcinfo     001030cb  00000000  00000000  00096b8c  2**0
                  CONTENTS, READONLY
SYMBOL TABLE:
00040000 l    d  .entry	00000000 .entry
00040020 l    d  .exceptions	00000000 .exceptions
000401c0 l    d  .text	00000000 .text
0005bf14 l    d  .rodata	00000000 .rodata
0005d210 l    d  .rwdata	00000000 .rwdata
00061880 l    d  .bss	00000000 .bss
000619dc l    d  .onchip_memory2	00000000 .onchip_memory2
00000000 l    d  .comment	00000000 .comment
00000000 l    d  .debug_aranges	00000000 .debug_aranges
00000000 l    d  .debug_info	00000000 .debug_info
00000000 l    d  .debug_abbrev	00000000 .debug_abbrev
00000000 l    d  .debug_line	00000000 .debug_line
00000000 l    d  .debug_frame	00000000 .debug_frame
00000000 l    d  .debug_str	00000000 .debug_str
00000000 l    d  .debug_loc	00000000 .debug_loc
00000000 l    d  .debug_alt_sim_info	00000000 .debug_alt_sim_info
00000000 l    d  .debug_ranges	00000000 .debug_ranges
00000000 l    df *ABS*	00000000 ../Camera_Test_bsp//obj/HAL/src/crt0.o
00040208 l       .text	00000000 alt_after_alt_main
00000000 l    df *ABS*	00000000 alt_exception_entry.o
00040094 l       .exceptions	00000000 alt_exception_unknown
00000000 l    df *ABS*	00000000 alt_irq_handler.c
00000000 l    df *ABS*	00000000 adv7513.c
000407e0 l     F .text	000000e0 adv7513_video_in_format
000408c0 l     F .text	00000078 adv7513_config_csc
00040938 l     F .text	00000418 adv7513_avi_infoframe
00040d50 l     F .text	00000120 adv7513_video_out_format
00040e70 l     F .text	000001bc adv7513_sync_adj
0004102c l     F .text	00000240 adv7513_de_gen
0004126c l     F .text	000001d8 adv7513_video_misc_config
00000000 l    df *ABS*	00000000 edid.c
0005f4f0 l     O .rwdata	00000008 header.4224
00000000 l    df *ABS*	00000000 encoder.c
00000000 l    df *ABS*	00000000 hdmi_tx.c
000472b0 l     F .text	00000048 adv7513_int_mask_to_long
000472f8 l     F .text	00000060 adv7513_long_to_int_mask
00047358 l     F .text	000002ac bin_dump
00047604 l     F .text	000003a0 adv7513_int_handler
00000000 l    df *ABS*	00000000 I2C_core.c
00000000 l    df *ABS*	00000000 auto_focus.c
00000000 l    df *ABS*	00000000 i2c.c
00000000 l    df *ABS*	00000000 main.c
00000000 l    df *ABS*	00000000 mipi_bridge_config.c
0005d29c l     O .rwdata	00000034 MipiBridgeReg
00000000 l    df *ABS*	00000000 mipi_camera_config.c
0005d2d0 l     O .rwdata	0000076e MipiCameraReg
00000000 l    df *ABS*	00000000 lib2-divmod.c
00000000 l    df *ABS*	00000000 addsf3.c
00000000 l    df *ABS*	00000000 divsf3.c
00000000 l    df *ABS*	00000000 mulsf3.c
00000000 l    df *ABS*	00000000 subsf3.c
00000000 l    df *ABS*	00000000 floatunsisf.c
00000000 l    df *ABS*	00000000 libgcc2.c
00000000 l    df *ABS*	00000000 libgcc2.c
00000000 l    df *ABS*	00000000 fgets.c
00000000 l    df *ABS*	00000000 findfp.c
0004c774 l     F .text	00000008 __fp_unlock
0004c788 l     F .text	0000019c __sinit.part.1
0004c924 l     F .text	00000008 __fp_lock
00000000 l    df *ABS*	00000000 fwalk.c
00000000 l    df *ABS*	00000000 impure.c
0005da40 l     O .rwdata	00000424 impure_data
00000000 l    df *ABS*	00000000 mallocr.c
00000000 l    df *ABS*	00000000 memchr.c
00000000 l    df *ABS*	00000000 memcmp.c
00000000 l    df *ABS*	00000000 memcpy.c
00000000 l    df *ABS*	00000000 memset.c
00000000 l    df *ABS*	00000000 printf.c
00000000 l    df *ABS*	00000000 putchar.c
00000000 l    df *ABS*	00000000 puts.c
00000000 l    df *ABS*	00000000 refill.c
0004d9d8 l     F .text	0000001c lflush
00000000 l    df *ABS*	00000000 sbrkr.c
00000000 l    df *ABS*	00000000 stdio.c
00000000 l    df *ABS*	00000000 strlen.c
00000000 l    df *ABS*	00000000 strncpy.c
00000000 l    df *ABS*	00000000 strtoul.c
00000000 l    df *ABS*	00000000 vfprintf.c
0005cde2 l     O .rodata	00000010 zeroes.4404
00050358 l     F .text	000000bc __sbprintf
0005cdf2 l     O .rodata	00000010 blanks.4403
00000000 l    df *ABS*	00000000 writer.c
00000000 l    df *ABS*	00000000 wsetup.c
00000000 l    df *ABS*	00000000 closer.c
00000000 l    df *ABS*	00000000 ctype_.c
0005cf03 l     O .rodata	00000180 _ctype_b
00000000 l    df *ABS*	00000000 dtoa.c
0005061c l     F .text	00000200 quorem
00000000 l    df *ABS*	00000000 fclose.c
00000000 l    df *ABS*	00000000 fflush.c
00000000 l    df *ABS*	00000000 mallocr.c
00000000 l    df *ABS*	00000000 fvwrite.c
00000000 l    df *ABS*	00000000 int_errno.c
00000000 l    df *ABS*	00000000 locale.c
0005e28c l     O .rwdata	00000020 lc_ctype_charset
0005e26c l     O .rwdata	00000020 lc_message_charset
0005e2ac l     O .rwdata	00000038 lconv
00000000 l    df *ABS*	00000000 lseekr.c
00000000 l    df *ABS*	00000000 makebuf.c
00000000 l    df *ABS*	00000000 memmove.c
00000000 l    df *ABS*	00000000 mprec.c
0005d0a0 l     O .rodata	0000000c p05.2768
00000000 l    df *ABS*	00000000 putc.c
00000000 l    df *ABS*	00000000 readr.c
00000000 l    df *ABS*	00000000 mallocr.c
00000000 l    df *ABS*	00000000 s_fpclassify.c
00000000 l    df *ABS*	00000000 strcmp.c
00000000 l    df *ABS*	00000000 vfprintf.c
0005480c l     F .text	000000fc __sprint_r.part.0
0005d1d4 l     O .rodata	00000010 blanks.4348
0005d1c4 l     O .rodata	00000010 zeroes.4349
00055d98 l     F .text	000000bc __sbprintf
00000000 l    df *ABS*	00000000 wbuf.c
00000000 l    df *ABS*	00000000 mallocr.c
00000000 l    df *ABS*	00000000 fputwc.c
00000000 l    df *ABS*	00000000 fstatr.c
00000000 l    df *ABS*	00000000 isattyr.c
00000000 l    df *ABS*	00000000 wcrtomb.c
00000000 l    df *ABS*	00000000 wctomb_r.c
00000000 l    df *ABS*	00000000 libgcc2.c
00000000 l    df *ABS*	00000000 libgcc2.c
00000000 l    df *ABS*	00000000 adddf3.c
00000000 l    df *ABS*	00000000 divdf3.c
00000000 l    df *ABS*	00000000 eqdf2.c
00000000 l    df *ABS*	00000000 gedf2.c
00000000 l    df *ABS*	00000000 ledf2.c
00000000 l    df *ABS*	00000000 muldf3.c
00000000 l    df *ABS*	00000000 subdf3.c
00000000 l    df *ABS*	00000000 fixdfsi.c
00000000 l    df *ABS*	00000000 floatsidf.c
00000000 l    df *ABS*	00000000 floatunsidf.c
00000000 l    df *ABS*	00000000 alt_close.c
000595c4 l     F .text	00000050 alt_get_errno
00000000 l    df *ABS*	00000000 alt_dev.c
000596e4 l     F .text	0000002c alt_dev_null_write
00000000 l    df *ABS*	00000000 alt_errno.c
00000000 l    df *ABS*	00000000 alt_fstat.c
00059710 l     F .text	00000050 alt_get_errno
00000000 l    df *ABS*	00000000 alt_iic.c
00000000 l    df *ABS*	00000000 alt_iic_isr_register.c
00000000 l    df *ABS*	00000000 alt_irq_vars.c
00000000 l    df *ABS*	00000000 alt_isatty.c
00059ae0 l     F .text	00000050 alt_get_errno
00000000 l    df *ABS*	00000000 alt_load.c
00059bd4 l     F .text	00000068 alt_load_section
00000000 l    df *ABS*	00000000 alt_lseek.c
00059cc0 l     F .text	00000050 alt_get_errno
00000000 l    df *ABS*	00000000 alt_main.c
00000000 l    df *ABS*	00000000 alt_malloc_lock.c
00000000 l    df *ABS*	00000000 alt_read.c
00059ea8 l     F .text	00000050 alt_get_errno
00000000 l    df *ABS*	00000000 alt_release_fd.c
00000000 l    df *ABS*	00000000 alt_sbrk.c
0005f53c l     O .rwdata	00000004 heap_end
00000000 l    df *ABS*	00000000 alt_tick.c
00000000 l    df *ABS*	00000000 alt_usleep.c
00000000 l    df *ABS*	00000000 alt_write.c
0005a2dc l     F .text	00000050 alt_get_errno
00000000 l    df *ABS*	00000000 alt_sys_init.c
0005a424 l     F .text	00000038 alt_dev_reg
0005e48c l     O .rwdata	00001060 jtag_uart
00000000 l    df *ABS*	00000000 altera_avalon_jtag_uart_fd.c
00000000 l    df *ABS*	00000000 altera_avalon_jtag_uart_init.c
0005a724 l     F .text	0000020c altera_avalon_jtag_uart_irq
0005a930 l     F .text	000000a8 altera_avalon_jtag_uart_timeout
00000000 l    df *ABS*	00000000 altera_avalon_jtag_uart_ioctl.c
00000000 l    df *ABS*	00000000 altera_avalon_jtag_uart_read.c
00000000 l    df *ABS*	00000000 altera_avalon_jtag_uart_write.c
00000000 l    df *ABS*	00000000 altera_avalon_timer_sc.c
0005af70 l     F .text	00000078 alt_avalon_timer_sc_irq
00000000 l    df *ABS*	00000000 alt_alarm_start.c
00000000 l    df *ABS*	00000000 alt_busy_sleep.c
00000000 l    df *ABS*	00000000 alt_dcache_flush_all.c
00000000 l    df *ABS*	00000000 alt_dev_llist_insert.c
0005b354 l     F .text	00000050 alt_get_errno
00000000 l    df *ABS*	00000000 alt_do_ctors.c
00000000 l    df *ABS*	00000000 alt_do_dtors.c
00000000 l    df *ABS*	00000000 alt_icache_flush_all.c
00000000 l    df *ABS*	00000000 alt_io_redirect.c
0005b53c l     F .text	000000c4 alt_open_fd
00000000 l    df *ABS*	00000000 alt_open.c
0005b67c l     F .text	00000050 alt_get_errno
0005b6cc l     F .text	000000cc alt_file_locked
00000000 l    df *ABS*	00000000 altera_nios2_qsys_irq.c
00000000 l    df *ABS*	00000000 alt_find_dev.c
00000000 l    df *ABS*	00000000 alt_find_file.c
00000000 l    df *ABS*	00000000 alt_get_fd.c
00000000 l    df *ABS*	00000000 alt_icache_flush.c
00000000 l    df *ABS*	00000000 atexit.c
00000000 l    df *ABS*	00000000 exit.c
00000000 l    df *ABS*	00000000 __atexit.c
00000000 l    df *ABS*	00000000 __call_atexit.c
00000000 l    df *ABS*	00000000 alt_exit.c
0004d8ec g     F .text	00000018 putchar
00053e18 g     F .text	00000074 _mprec_log10
000499a8 g     F .text	00000100 I2C_Read
00053f04 g     F .text	0000008c __any_on
000562d4 g     F .text	00000054 _isatty_r
0005d0ac g     O .rodata	00000028 __mprec_tinytens
00059de4 g     F .text	0000007c alt_main
0004d904 g     F .text	000000c0 _puts_r
000618dc g     O .bss	00000100 alt_irq
00052c1c g     F .text	00000060 _lseek_r
00049820 g     F .text	000000b0 Focus_Released
00048ac4 g     F .text	00000060 ACK_check
0005f548 g       *ABS*	00000000 __flash_rwdata_start
00048a38 g     F .text	0000008c ACK_single_check
00058154 g     F .text	00000088 .hidden __eqdf2
00049644 g     F .text	000001dc Focus_Window
0004ab8c g     F .text	0000006c OV8865_write_AF
000619dc g       *ABS*	00000000 __alt_heap_start
0004d8a8 g     F .text	0000003c printf
00056328 g     F .text	0000009c _wcrtomb_r
00041688 g     F .text	000000b0 eb_establish_timing_i
00040650 g     F .text	000000d0 adv7513_edid_read
0004dcf4 g     F .text	0000005c __sseek
0004cac4 g     F .text	00000010 __sinit
00055e54 g     F .text	00000140 __swbuf_r
00052b40 g     F .text	0000007c _setlocale_r
0004c92c g     F .text	00000068 __sfmoreglue
00059e84 g     F .text	00000024 __malloc_unlock
0004b7a0 g     F .text	00000440 .hidden __divsf3
00052e38 g     F .text	0000015c memmove
00048b24 g     F .text	00000200 OC_I2C_Write
0004caac g     F .text	00000018 _cleanup
00052f94 g     F .text	000000a8 _Balloc
0004951c g     F .text	00000128 Focus_Init
0004032c g     F .text	0000012c adv7513_hpd_probe
000581dc g     F .text	000000dc .hidden __gtdf2
0004020c g     F .text	00000120 adv7513_chip_identify
00049d04 g     F .text	00000130 i2c_write
00040000 g     F .entry	0000001c __reset
00040020 g       *ABS*	00000000 __flash_exceptions_start
00056278 g     F .text	0000005c _fstat_r
0005f500 g     O .rwdata	00000001 focus_scal
0006188c g     O .bss	00000004 errno
0004dc70 g     F .text	00000008 __seofread
000618a4 g     O .bss	00000004 alt_argv
000674ec g       *ABS*	00000000 _gp
0005a2ac g     F .text	00000030 usleep
0004bfdc g     F .text	000004e4 .hidden __subsf3
0004c758 g     F .text	0000001c fgets
0005e30c g     O .rwdata	00000180 alt_fd_list
0004d8e4 g     F .text	00000008 _putchar_r
0005b914 g     F .text	00000090 alt_find_dev
0004d608 g     F .text	00000148 memcpy
000405e4 g     F .text	0000006c adv7513_power_state
00048878 g     F .text	0000013c oc_i2c_init_ex
0004c77c g     F .text	0000000c _cleanup_r
00059440 g     F .text	000000dc .hidden __floatsidf
0005b600 g     F .text	0000007c alt_io_redirect
000582b8 g     F .text	000000f4 .hidden __ltdf2
0005bf14 g       *ABS*	00000000 __DTOR_END__
0004d9c4 g     F .text	00000014 puts
000546bc g     F .text	00000074 __fpclassifyd
00053d74 g     F .text	000000a4 __ratio
00055d7c g     F .text	0000001c __vfiprintf_internal
0005ab30 g     F .text	0000021c altera_avalon_jtag_uart_read
0004d878 g     F .text	00000030 _printf_r
0004b21c g     F .text	00000064 .hidden __udivsi3
00059b30 g     F .text	000000a4 isatty
0005d0fc g     O .rodata	000000c8 __mprec_tens
00052bbc g     F .text	0000000c __locale_charset
0005bb6c g     F .text	00000090 alt_icache_flush
00049aa8 g     F .text	00000158 I2C_MultipleRead
00061888 g     O .bss	00000004 __malloc_top_pad
0004ac78 g     F .text	000000e4 OV8865_FOCUS_Move_to
0004e128 g     F .text	0000001c strtoul
0005f518 g     O .rwdata	00000004 __mb_cur_max
00052bec g     F .text	0000000c _localeconv_r
000533a0 g     F .text	0000003c __i2b
00052684 g     F .text	000004bc __sfvwrite_r
0005d210 g     O .rwdata	0000008c encoder
0004dbc8 g     F .text	00000054 _sbrk_r
000540f8 g     F .text	00000060 _read_r
0005f4fe g     O .rwdata	00000002 focus_height
0005f530 g     O .rwdata	00000004 alt_max_fd
00051ea4 g     F .text	000000f0 _fclose_r
0004ab20 g     F .text	0000006c OV8865_write_cmos_sensor_8
00052220 g     F .text	00000030 fflush
00061884 g     O .bss	00000004 __malloc_max_sbrked_mem
0004a09c g     F .text	00000138 I2CL_Read
00040598 g     F .text	0000004c adv7513_do_hpd_powerdown
00056fc0 g     F .text	000008ac .hidden __adddf3
00053b1c g     F .text	0000010c __b2d
00056a88 g     F .text	00000538 .hidden __umoddi3
00059d10 g     F .text	000000d4 lseek
0005f504 g     O .rwdata	00000004 _global_impure_ptr
00054158 g     F .text	00000564 _realloc_r
000619dc g       *ABS*	00000000 __bss_end
000599f0 g     F .text	000000f0 alt_iic_isr_register
0005a1a4 g     F .text	00000108 alt_tick
00040458 g     F .text	00000140 adv7513_do_hpd_powerup
000429c0 g     F .text	000000f8 edid_decode_extensions
00056510 g     F .text	00000578 .hidden __udivdi3
000561d4 g     F .text	00000024 _fputwc_r
0005d0d4 g     O .rodata	00000028 __mprec_bigtens
00053184 g     F .text	00000104 __s2b
0005951c g     F .text	000000a8 .hidden __floatunsidf
0005f4fa g     O .rwdata	00000002 video_h
0005385c g     F .text	00000060 __mcmp
0004cae4 g     F .text	00000018 __fp_lock_all
000599a4 g     F .text	0000004c alt_ic_irq_enabled
0004a35c g     F .text	000000b8 mipi_clear_error
000498d0 g     F .text	000000d8 I2C_Write
00047bd0 g     F .text	00000954 main_xxx
0004908c g     F .text	00000210 OC_I2CL_Write
0005a108 g     F .text	0000009c alt_alarm_stop
0006189c g     O .bss	00000004 alt_irq_active
00048d24 g     F .text	00000064 ACK_judge_for_read
000400ec g     F .exceptions	000000d4 alt_irq_handler
0005e2e4 g     O .rwdata	00000028 alt_dev_null
00048770 g     F .text	00000058 Write32_Data
00049c00 g     F .text	0000008c i2c_start
0005b30c g     F .text	00000048 alt_dcache_flush_all
00053288 g     F .text	00000068 __hi0bits
000593c0 g     F .text	00000080 .hidden __fixdfsi
0005f501 g     O .rwdata	00000001 focus_scal_f
0005f548 g       *ABS*	00000000 __ram_rwdata_end
0005f528 g     O .rwdata	00000008 alt_dev_list
0005a32c g     F .text	000000f8 write
00053f90 g     F .text	000000a0 _putc_r
0005d210 g       *ABS*	00000000 __ram_rodata_end
00059760 g     F .text	000000b0 fstat
000582b8 g     F .text	000000f4 .hidden __ledf2
000535d4 g     F .text	00000140 __pow5mult
00054920 g     F .text	0000145c ___vfiprintf_internal_r
00061898 g     O .bss	00000004 __nlocale_changed
0004b280 g     F .text	00000058 .hidden __umodsi3
0004a4ac g     F .text	00000178 mipi_show_error_info_more
000619dc g       *ABS*	00000000 end
0005a65c g     F .text	000000c8 altera_avalon_jtag_uart_init
0005bf14 g       *ABS*	00000000 __CTOR_LIST__
0006bf20 g       *ABS*	00000000 __alt_stack_pointer
0005afe8 g     F .text	0000008c alt_avalon_timer_sc_init
0004c5b0 g     F .text	00000064 .hidden __clzsi2
0005ad4c g     F .text	00000224 altera_avalon_jtag_uart_write
0004cad4 g     F .text	00000004 __sfp_lock_acquire
0004d4a8 g     F .text	000000e4 memchr
0004e144 g     F .text	000021f8 ___vfprintf_internal_r
0005f4ec g     O .rwdata	00000004 ADV7513_REG_SPACE_SIZE
00052374 g     F .text	00000310 _free_r
00040720 g     F .text	000000c0 adv7513_regmap_dump
00052bc8 g     F .text	00000010 __locale_mb_cur_max
0005bd60 g     F .text	00000180 __call_exitprocs
00061894 g     O .bss	00000004 __mlocale_changed
0005f50c g     O .rwdata	00000004 __malloc_sbrk_base
000401c0 g     F .text	0000004c _start
000618ac g     O .bss	00000004 _alt_tick_rate
00053714 g     F .text	00000148 __lshift
000618b0 g     O .bss	00000004 _alt_nticks
00059ef8 g     F .text	000000fc read
0005a494 g     F .text	00000064 alt_sys_init
0005bc48 g     F .text	00000118 __register_exitproc
0004aabc g     F .text	00000064 OV8865_read_cmos_sensor_8
00046bbc g     F .text	00000088 reg_read
000533dc g     F .text	000001f8 __multiply
0005a9d8 g     F .text	00000068 altera_avalon_jtag_uart_close
0004a8a8 g     F .text	0000006c MipiBridgeRegWrite
0005d210 g       *ABS*	00000000 __ram_rwdata_start
0005bf14 g       *ABS*	00000000 __ram_rodata_start
0004ddf0 g     F .text	000000ec strncpy
000618b4 g     O .bss	00000028 __malloc_current_mallinfo
00053c28 g     F .text	0000014c __d2b
00047058 g     F .text	00000128 adc_power
0005a4f8 g     F .text	00000060 altera_avalon_jtag_uart_read_fd
0004dedc g     F .text	0000024c _strtoul_r
0005bab8 g     F .text	000000b4 alt_get_fd
0005b1b4 g     F .text	00000158 alt_busy_sleep
000505c8 g     F .text	00000054 _close_r
0004d58c g     F .text	0000007c memcmp
0005a5b8 g     F .text	00000050 altera_avalon_jtag_uart_close_fd
000619dc g       *ABS*	00000000 __alt_stack_base
0005a608 g     F .text	00000054 altera_avalon_jtag_uart_ioctl_fd
00050474 g     F .text	00000154 __swsetup_r
00048820 g     F .text	00000058 oc_i2c_init
0005786c g     F .text	000008e8 .hidden __divdf3
0004c994 g     F .text	00000118 __sfp
00053e8c g     F .text	00000078 __copybits
0005de64 g     O .rwdata	00000408 __malloc_av_
0004cae0 g     F .text	00000004 __sinit_lock_release
00049c8c g     F .text	00000078 i2c_stop
000583ac g     F .text	00000718 .hidden __muldf3
0004dc1c g     F .text	00000054 __sread
0005b9a4 g     F .text	00000114 alt_find_file
0005b3a4 g     F .text	000000a4 alt_dev_llist_insert
00059e60 g     F .text	00000024 __malloc_lock
0005a058 g     F .text	000000b0 sbrk
0004af1c g     F .text	00000208 MipiCameraInit
0004a85c g     F .text	0000004c nSWAP16
000521c4 g     F .text	0000005c _fflush_r
00055fac g     F .text	000000c4 _calloc_r
00061880 g       *ABS*	00000000 __bss_start
0004d750 g     F .text	00000128 memset
0004a6a4 g     F .text	000001b8 main
000618a8 g     O .bss	00000004 alt_envp
00061880 g     O .bss	00000004 __malloc_max_total_mem
0005a558 g     F .text	00000060 altera_avalon_jtag_uart_write_fd
00049e34 g     F .text	00000158 i2c_read
00055f94 g     F .text	00000018 __swbuf
0004dd50 g     F .text	00000008 __sclose
0006bf20 g       *ABS*	00000000 __alt_heap_limit
00051f94 g     F .text	00000014 fclose
0005081c g     F .text	00001688 _dtoa_r
0004cc9c g     F .text	0000080c _malloc_r
00056484 g     F .text	00000030 __ascii_wctomb
0005f534 g     O .rwdata	00000004 alt_errno
00046ce4 g     F .text	00000140 reg_update_bits
0004cb14 g     F .text	000000c4 _fwalk
0004c614 g     F .text	00000144 _fgets_r
00054030 g     F .text	000000c8 putc
0004b124 g     F .text	00000084 .hidden __divsi3
000489b4 g     F .text	00000084 oc_i2c_uninit
00052250 g     F .text	00000124 _malloc_trim_r
0005bf14 g       *ABS*	00000000 __CTOR_END__
0004bbe0 g     F .text	000003fc .hidden __mulsf3
0004ad5c g     F .text	000001c0 MIPI_BIN_LEVEL
00046f3c g     F .text	0000011c reg_clear_bits
00054730 g     F .text	000000dc strcmp
0005bf14 g       *ABS*	00000000 __flash_rodata_start
0005bf14 g       *ABS*	00000000 __DTOR_LIST__
00041738 g     F .text	000000b0 eb_establish_timing_rb
00058154 g     F .text	00000088 .hidden __nedf2
0005a45c g     F .text	00000038 alt_irq_init
00059ff4 g     F .text	00000064 alt_release_fd
0004a98c g     F .text	00000130 MipiBridgeInit
0005cc98 g     O .rodata	00000100 .hidden __clz_tab
00061890 g     O .bss	00000004 _PathLocale
0005bbfc g     F .text	00000014 atexit
00050414 g     F .text	00000060 _write_r
00052bf8 g     F .text	00000018 setlocale
00048524 g     F .text	0000024c hdmi_tx_start
0005f508 g     O .rwdata	00000004 _impure_ptr
000618a0 g     O .bss	00000004 alt_argc
0004a914 g     F .text	00000078 MipiBridgeRegRead
00051fa8 g     F .text	0000021c __sflush_r
0005b4a8 g     F .text	00000060 _do_dtors
00052be4 g     F .text	00000008 __locale_cjk_lang
0004a1d4 g     F .text	00000188 I2CL_MultipleRead
0005f4f8 g     O .rwdata	00000002 video_w
0004d9f4 g     F .text	000001d4 __srefill_r
00040020 g       .exceptions	00000000 alt_irq_entry
00053ab8 g     F .text	00000064 __ulp
0004cafc g     F .text	00000018 __fp_unlock_all
0005f520 g     O .rwdata	00000008 alt_fs_list
000487c8 g     F .text	00000058 Read32_Data
00048d88 g     F .text	000001cc OC_I2C_Read
00040020 g       *ABS*	00000000 __ram_exceptions_start
00052c10 g     F .text	0000000c localeconv
00040000 g       *ABS*	00000000 __alt_mem_onchip_memory2
00059810 g     F .text	00000050 alt_ic_isr_register
00042ab8 g     F .text	000040e0 edid_decode_v14
0005bf14 g     O .rodata	00000100 adv7513_register_defaults
0005f548 g       *ABS*	00000000 _edata
000619dc g       *ABS*	00000000 _end
00041444 g     F .text	000000b8 adv7513_video_init
00056070 g     F .text	00000164 __fputwc
000479a4 g     F .text	0000022c adv7513_int_setup
000401c0 g       *ABS*	00000000 __ram_exceptions_end
0005aa40 g     F .text	000000f0 altera_avalon_jtag_uart_ioctl
000414fc g     F .text	00000098 adv7513_audio_init
00059900 g     F .text	000000a4 alt_ic_irq_disable
00046e24 g     F .text	00000118 reg_or_bits
0004dc78 g     F .text	0000007c __swrite
0005f510 g     O .rwdata	00000004 __malloc_trim_threshold
00048f54 g     F .text	00000138 OC_I2C_Read_Continue
0005b8f0 g     F .text	00000024 altera_nios2_qsys_irq_init
00052bd8 g     F .text	0000000c __locale_msgcharset
0005bc10 g     F .text	00000038 exit
0005f502 g     O .rwdata	00000001 focus_th
0004cbd8 g     F .text	000000c4 _fwalk_reent
0004c4c0 g     F .text	000000f0 .hidden __floatunsisf
000538bc g     F .text	000001fc __mdiff
00046c44 g     F .text	000000a0 reg_write
0004b1a8 g     F .text	00000074 .hidden __modsi3
0005f514 g     O .rwdata	00000004 __ctype_ptr__
0006bf20 g       *ABS*	00000000 __alt_data_end
00040020 g     F .exceptions	00000000 alt_exception
0004cad8 g     F .text	00000004 __sfp_lock_release
0004a414 g     F .text	00000098 mipi_show_error_info
0005ce02 g     O .rodata	00000101 _ctype_
00047180 g     F .text	000000a0 adc_reg_read
0004929c g     F .text	00000280 OC_I2CL_Read
0005bee0 g     F .text	00000034 _exit
0005b074 g     F .text	00000140 alt_alarm_start
00047220 g     F .text	00000090 adc_reg_write
00052c7c g     F .text	000001bc __smakebuf_r
0004dd58 g     F .text	00000098 strlen
0005b798 g     F .text	00000158 open
000581dc g     F .text	000000dc .hidden __gedf2
000417e8 g     F .text	000011d8 edid_decode_cea
00041594 g     F .text	00000048 adv7513_chip_init
0005f51c g     O .rwdata	00000004 __wctomb
00046b98 g     F .text	00000024 edid_print_v14
00054908 g     F .text	00000018 __sprint_r
0005b508 g     F .text	00000034 alt_icache_flush_all
0005f538 g     O .rwdata	00000004 alt_priority_mask
0005f4fc g     O .rwdata	00000002 focus_width
000415dc g     F .text	000000ac eb_establish_timing
00059860 g     F .text	000000a0 alt_ic_irq_enable
0005033c g     F .text	0000001c __vfprintf_internal
000564b4 g     F .text	0000005c _wctomb_r
0004a624 g     F .text	00000080 MIPI_Init
00058ac4 g     F .text	000008fc .hidden __subdf3
000532f0 g     F .text	000000b0 __lo0bits
0005f540 g     O .rwdata	00000008 alt_alarm_list
0005b448 g     F .text	00000060 _do_ctors
00049f8c g     F .text	00000110 I2CL_Write
000563c4 g     F .text	000000c0 wcrtomb
00059614 g     F .text	000000d0 close
0004b2d8 g     F .text	000004c8 .hidden __addsf3
0004abf8 g     F .text	00000080 OV8865_read_AF
00059c3c g     F .text	00000084 alt_load
000561f8 g     F .text	00000080 fputwc
0004cadc g     F .text	00000004 __sinit_lock_acquire
00053064 g     F .text	00000120 __multadd
0005303c g     F .text	00000028 _Bfree



Disassembly of section .entry:

00040000 <__reset>:
#if NIOS2_ICACHE_SIZE > 0 && defined(ALT_ALLOW_CODE_AT_RESET) && !defined(ALT_SIM_OPTIMIZE)
    /* Assume the instruction cache size is always a power of two. */
#if NIOS2_ICACHE_SIZE > 0x8000
    movhi r2, %hi(NIOS2_ICACHE_SIZE)
#else
    movui r2, NIOS2_ICACHE_SIZE
   40000:	00840014 	movui	r2,4096
#endif

0:
    initi r2
   40004:	1001483a 	initi	r2
    addi r2, r2, -NIOS2_ICACHE_LINE_SIZE
   40008:	10bff804 	addi	r2,r2,-32
    bgt r2, zero, 0b
   4000c:	00bffd16 	blt	zero,r2,40004 <__alt_data_end+0xfffd40e4>
 * Jump to the _start entry point in the .text section if reset code
 * is allowed or if optimizing for RTL simulation.
 */
#if defined(ALT_ALLOW_CODE_AT_RESET) || defined(ALT_SIM_OPTIMIZE)
    /* Jump to the _start entry point in the .text section. */
    movhi r1, %hi(_start)
   40010:	00400134 	movhi	at,4
    ori r1, r1, %lo(_start)
   40014:	08407014 	ori	at,at,448
    jmp r1
   40018:	0800683a 	jmp	at
   4001c:	00000000 	call	0 <__alt_mem_onchip_memory2-0x40000>

Disassembly of section .exceptions:

00040020 <alt_exception>:

#else /* ALT_EXCEPTION_STACK disabled */
        /* 
         * Reserve space on normal stack for registers about to be pushed.
         */
        addi  sp, sp, -76
   40020:	deffed04 	addi	sp,sp,-76
         * documentation for details).
         *
         * Leave a gap in the stack frame at 4(sp) for the muldiv handler to
         * store zero into.
         */
        stw   ra,  0(sp)
   40024:	dfc00015 	stw	ra,0(sp)
        stw   r1,   8(sp)
   40028:	d8400215 	stw	at,8(sp)
        stw   r2,  12(sp)
   4002c:	d8800315 	stw	r2,12(sp)
        stw   r3,  16(sp)
   40030:	d8c00415 	stw	r3,16(sp)
        stw   r4,  20(sp)
   40034:	d9000515 	stw	r4,20(sp)
        stw   r5,  24(sp)
   40038:	d9400615 	stw	r5,24(sp)
        stw   r6,  28(sp)
   4003c:	d9800715 	stw	r6,28(sp)
        stw   r7,  32(sp)
   40040:	d9c00815 	stw	r7,32(sp)
        rdctl r5, estatus   /* Read early to avoid usage stall */
   40044:	000b307a 	rdctl	r5,estatus
        stw   r8,  36(sp)
   40048:	da000915 	stw	r8,36(sp)
        stw   r9,  40(sp)
   4004c:	da400a15 	stw	r9,40(sp)
        stw   r10, 44(sp)
   40050:	da800b15 	stw	r10,44(sp)
        stw   r11, 48(sp)
   40054:	dac00c15 	stw	r11,48(sp)
        stw   r12, 52(sp)
   40058:	db000d15 	stw	r12,52(sp)
        stw   r13, 56(sp)
   4005c:	db400e15 	stw	r13,56(sp)
        stw   r14, 60(sp)
   40060:	db800f15 	stw	r14,60(sp)
        stw   r15, 64(sp)
   40064:	dbc01015 	stw	r15,64(sp)
        /*
         * ea-4 contains the address of the instruction being executed
         * when the exception occured. For interrupt exceptions, we will
         * will be re-issue the isntruction. Store it in 72(sp)
         */
        stw   r5,  68(sp)  /* estatus */
   40068:	d9401115 	stw	r5,68(sp)
        addi  r15, ea, -4  /* instruction that caused exception */
   4006c:	ebffff04 	addi	r15,ea,-4
        stw   r15,  72(sp)
   40070:	dbc01215 	stw	r15,72(sp)
#else
        /*
         * Test to see if the exception was a software exception or caused 
         * by an external interrupt, and vector accordingly.
         */
        rdctl r4, ipending
   40074:	0009313a 	rdctl	r4,ipending
        andi  r2, r5, 1
   40078:	2880004c 	andi	r2,r5,1
        beq   r2, zero, .Lnot_irq
   4007c:	10000326 	beq	r2,zero,4008c <alt_exception+0x6c>
        beq   r4, zero, .Lnot_irq
   40080:	20000226 	beq	r4,zero,4008c <alt_exception+0x6c>
        /*
         * Now that all necessary registers have been preserved, call 
         * alt_irq_handler() to process the interrupts.
         */

        call alt_irq_handler
   40084:	00400ec0 	call	400ec <alt_irq_handler>

        .section .exceptions.irqreturn, "xa"

        br    .Lexception_exit
   40088:	00000306 	br	40098 <alt_exception_unknown+0x4>
         * upon completion, so we write ea (address of instruction *after*
         * the one where the exception occured) into 72(sp). The actual
         * instruction that caused the exception is written in r2, which these
         * handlers will utilize.
         */
        stw   ea,  72(sp)  /* Don't re-issue */
   4008c:	df401215 	stw	ea,72(sp)
        ldw   r2, -4(ea)   /* Instruction that caused exception */
   40090:	e8bfff17 	ldw	r2,-4(ea)

00040094 <alt_exception_unknown>:
#ifdef NIOS2_HAS_DEBUG_STUB
       /*
        *  Either tell the user now (if there is a debugger attached) or go into
        *  the debug monitor which will loop until a debugger is attached.
        */
        break
   40094:	003da03a 	break	0
        /* 
         * Restore the saved registers, so that all general purpose registers 
         * have been restored to their state at the time the interrupt occured.
         */

        ldw   r5,  68(sp)
   40098:	d9401117 	ldw	r5,68(sp)
        ldw   ea,  72(sp)  /* This becomes the PC once eret is executed */
   4009c:	df401217 	ldw	ea,72(sp)
        ldw   ra,   0(sp)
   400a0:	dfc00017 	ldw	ra,0(sp)

        wrctl estatus, r5
   400a4:	2801707a 	wrctl	estatus,r5

        ldw   r1,   8(sp)
   400a8:	d8400217 	ldw	at,8(sp)
        ldw   r2,  12(sp)
   400ac:	d8800317 	ldw	r2,12(sp)
        ldw   r3,  16(sp)
   400b0:	d8c00417 	ldw	r3,16(sp)
        ldw   r4,  20(sp)
   400b4:	d9000517 	ldw	r4,20(sp)
        ldw   r5,  24(sp)
   400b8:	d9400617 	ldw	r5,24(sp)
        ldw   r6,  28(sp)
   400bc:	d9800717 	ldw	r6,28(sp)
        ldw   r7,  32(sp)
   400c0:	d9c00817 	ldw	r7,32(sp)

#if defined(ALT_EXCEPTION_STACK) && defined(ALT_STACK_CHECK)
        ldw   et, %gprel(alt_exception_old_stack_limit)(gp)
#endif

        ldw   r8,  36(sp)
   400c4:	da000917 	ldw	r8,36(sp)
        ldw   r9,  40(sp)
   400c8:	da400a17 	ldw	r9,40(sp)
        ldw   r10, 44(sp)
   400cc:	da800b17 	ldw	r10,44(sp)
        ldw   r11, 48(sp)
   400d0:	dac00c17 	ldw	r11,48(sp)
        ldw   r12, 52(sp)
   400d4:	db000d17 	ldw	r12,52(sp)
        ldw   r13, 56(sp)
   400d8:	db400e17 	ldw	r13,56(sp)
        ldw   r14, 60(sp)
   400dc:	db800f17 	ldw	r14,60(sp)
        ldw   r15, 64(sp)
   400e0:	dbc01017 	ldw	r15,64(sp)
        stw   et, %gprel(alt_stack_limit_value)(gp)
        stw   zero, %gprel(alt_exception_old_stack_limit)(gp)
#endif /* ALT_STACK_CHECK */
        ldw   sp,  76(sp)
#else /* ALT_EXCEPTION_STACK disabled */
        addi  sp, sp, 76
   400e4:	dec01304 	addi	sp,sp,76

        /*
         * Return to the interrupted instruction.
         */

        eret
   400e8:	ef80083a 	eret

000400ec <alt_irq_handler>:
 * instruction is present if the macro ALT_CI_INTERRUPT_VECTOR defined.
 */

void alt_irq_handler (void) __attribute__ ((section (".exceptions")));
void alt_irq_handler (void)
{
   400ec:	defff904 	addi	sp,sp,-28
   400f0:	dfc00615 	stw	ra,24(sp)
   400f4:	df000515 	stw	fp,20(sp)
   400f8:	df000504 	addi	fp,sp,20
  
  /*
   * Notify the operating system that we are at interrupt level.
   */ 
  
  ALT_OS_INT_ENTER();
   400fc:	0001883a 	nop
#ifndef NIOS2_EIC_PRESENT
static ALT_INLINE alt_u32 ALT_ALWAYS_INLINE alt_irq_pending (void)
{
  alt_u32 active;

  NIOS2_READ_IPENDING (active);
   40100:	0005313a 	rdctl	r2,ipending
   40104:	e0bffe15 	stw	r2,-8(fp)

  return active;
   40108:	e0bffe17 	ldw	r2,-8(fp)
   * Consider the case where the high priority interupt is asserted during
   * the interrupt entry sequence for a lower priority interrupt to see why
   * this is the case.
   */

  active = alt_irq_pending ();
   4010c:	e0bffb15 	stw	r2,-20(fp)

  do
  {
    i = 0;
   40110:	e03ffd15 	stw	zero,-12(fp)
    mask = 1;
   40114:	00800044 	movi	r2,1
   40118:	e0bffc15 	stw	r2,-16(fp)
     * called to clear the interrupt condition.
     */

    do
    {
      if (active & mask)
   4011c:	e0fffb17 	ldw	r3,-20(fp)
   40120:	e0bffc17 	ldw	r2,-16(fp)
   40124:	1884703a 	and	r2,r3,r2
   40128:	10001426 	beq	r2,zero,4017c <alt_irq_handler+0x90>
      { 
#ifdef ALT_ENHANCED_INTERRUPT_API_PRESENT
        alt_irq[i].handler(alt_irq[i].context); 
   4012c:	008001b4 	movhi	r2,6
   40130:	10863704 	addi	r2,r2,6364
   40134:	e0fffd17 	ldw	r3,-12(fp)
   40138:	180690fa 	slli	r3,r3,3
   4013c:	10c5883a 	add	r2,r2,r3
   40140:	10c00017 	ldw	r3,0(r2)
   40144:	008001b4 	movhi	r2,6
   40148:	10863704 	addi	r2,r2,6364
   4014c:	e13ffd17 	ldw	r4,-12(fp)
   40150:	200890fa 	slli	r4,r4,3
   40154:	1105883a 	add	r2,r2,r4
   40158:	10800104 	addi	r2,r2,4
   4015c:	10800017 	ldw	r2,0(r2)
   40160:	1009883a 	mov	r4,r2
   40164:	183ee83a 	callr	r3
#else
        alt_irq[i].handler(alt_irq[i].context, i); 
#endif
        break;
   40168:	0001883a 	nop
#ifndef NIOS2_EIC_PRESENT
static ALT_INLINE alt_u32 ALT_ALWAYS_INLINE alt_irq_pending (void)
{
  alt_u32 active;

  NIOS2_READ_IPENDING (active);
   4016c:	0005313a 	rdctl	r2,ipending
   40170:	e0bfff15 	stw	r2,-4(fp)

  return active;
   40174:	e0bfff17 	ldw	r2,-4(fp)
   40178:	00000706 	br	40198 <alt_irq_handler+0xac>
      }
      mask <<= 1;
   4017c:	e0bffc17 	ldw	r2,-16(fp)
   40180:	1085883a 	add	r2,r2,r2
   40184:	e0bffc15 	stw	r2,-16(fp)
      i++;
   40188:	e0bffd17 	ldw	r2,-12(fp)
   4018c:	10800044 	addi	r2,r2,1
   40190:	e0bffd15 	stw	r2,-12(fp)

    } while (1);
   40194:	003fe106 	br	4011c <__alt_data_end+0xfffd41fc>

    active = alt_irq_pending ();
   40198:	e0bffb15 	stw	r2,-20(fp)
    
  } while (active);
   4019c:	e0bffb17 	ldw	r2,-20(fp)
   401a0:	103fdb1e 	bne	r2,zero,40110 <__alt_data_end+0xfffd41f0>

  /*
   * Notify the operating system that interrupt processing is complete.
   */ 

  ALT_OS_INT_EXIT();
   401a4:	0001883a 	nop
}
   401a8:	0001883a 	nop
   401ac:	e037883a 	mov	sp,fp
   401b0:	dfc00117 	ldw	ra,4(sp)
   401b4:	df000017 	ldw	fp,0(sp)
   401b8:	dec00204 	addi	sp,sp,8
   401bc:	f800283a 	ret

Disassembly of section .text:

000401c0 <_start>:

    /* Assume the data cache size is always a power of two. */
#if NIOS2_DCACHE_SIZE > 0x8000
    movhi r2, %hi(NIOS2_DCACHE_SIZE)
#else
    movui r2, NIOS2_DCACHE_SIZE
   401c0:	00820014 	movui	r2,2048
#endif

0:
    initd 0(r2)
   401c4:	10000033 	initd	0(r2)
#ifdef NIOS2_ECC_PRESENT
    addi r2, r2, -4
#else
    addi r2, r2, -NIOS2_DCACHE_LINE_SIZE
   401c8:	10bff804 	addi	r2,r2,-32
#endif
    bgt r2, zero, 0b
   401cc:	00bffd16 	blt	zero,r2,401c4 <__alt_data_end+0xfffd42a4>

    /*
     * Now that the caches are initialized, set up the stack pointer and global pointer.
     * The values provided by the linker are assumed to be correctly aligned.
     */
    movhi sp, %hi(__alt_stack_pointer)
   401d0:	06c001b4 	movhi	sp,6
    ori sp, sp, %lo(__alt_stack_pointer)
   401d4:	deefc814 	ori	sp,sp,48928
    movhi gp, %hi(_gp)
   401d8:	068001b4 	movhi	gp,6
    ori gp, gp, %lo(_gp)
   401dc:	d69d3b14 	ori	gp,gp,29932
 */
#ifndef ALT_SIM_OPTIMIZE
    /* Log that the BSS is about to be cleared. */
    ALT_LOG_PUTS(alt_log_msg_bss)

    movhi r2, %hi(__bss_start)
   401e0:	008001b4 	movhi	r2,6
    ori r2, r2, %lo(__bss_start)
   401e4:	10862014 	ori	r2,r2,6272

    movhi r3, %hi(__bss_end)
   401e8:	00c001b4 	movhi	r3,6
    ori r3, r3, %lo(__bss_end)
   401ec:	18c67714 	ori	r3,r3,6620

    beq r2, r3, 1f
   401f0:	10c00326 	beq	r2,r3,40200 <_start+0x40>

0:
    stw zero, (r2)
   401f4:	10000015 	stw	zero,0(r2)
    addi r2, r2, 4
   401f8:	10800104 	addi	r2,r2,4
    bltu r2, r3, 0b
   401fc:	10fffd36 	bltu	r2,r3,401f4 <__alt_data_end+0xfffd42d4>
     * section aren't defined until alt_load() has been called).
     */
    mov   et, zero
#endif

    call alt_load
   40200:	0059c3c0 	call	59c3c <alt_load>

    /* Log that alt_main is about to be called. */
    ALT_LOG_PUTS(alt_log_msg_alt_main)

    /* Call the C entry point. It should never return. */
    call alt_main
   40204:	0059de40 	call	59de4 <alt_main>

00040208 <alt_after_alt_main>:

    /* Wait in infinite loop in case alt_main does return. */
alt_after_alt_main:
    br alt_after_alt_main
   40208:	003fff06 	br	40208 <__alt_data_end+0xfffd42e8>

0004020c <adv7513_chip_identify>:
	{ 0x55, 0x02 },
};
#endif

int adv7513_chip_identify(struct hdmi_encoder *ec)
{
   4020c:	defffb04 	addi	sp,sp,-20
   40210:	dfc00415 	stw	ra,16(sp)
   40214:	df000315 	stw	fp,12(sp)
   40218:	df000304 	addi	fp,sp,12
   4021c:	e13fff15 	stw	r4,-4(fp)
	bool r = 0;
   40220:	e03ffe15 	stw	zero,-8(fp)

	r = I2C_Read(I2C_SCL_BASE, I2C_SDA_BASE, ec->slave_addr, ADV7513_REG_CHIP_REVISION, &ec->chip_rev[0]);
   40224:	e0bfff17 	ldw	r2,-4(fp)
   40228:	10800017 	ldw	r2,0(r2)
   4022c:	10c03fcc 	andi	r3,r2,255
   40230:	18c0201c 	xori	r3,r3,128
   40234:	18ffe004 	addi	r3,r3,-128
   40238:	e0bfff17 	ldw	r2,-4(fp)
   4023c:	10800804 	addi	r2,r2,32
   40240:	d8800015 	stw	r2,0(sp)
   40244:	000f883a 	mov	r7,zero
   40248:	180d883a 	mov	r6,r3
   4024c:	01400234 	movhi	r5,8
   40250:	29443404 	addi	r5,r5,4304
   40254:	01000234 	movhi	r4,8
   40258:	21043004 	addi	r4,r4,4288
   4025c:	00499a80 	call	499a8 <I2C_Read>
   40260:	e0bffe15 	stw	r2,-8(fp)
	if (!r)
   40264:	e0bffe17 	ldw	r2,-8(fp)
   40268:	1000021e 	bne	r2,zero,40274 <adv7513_chip_identify+0x68>
		return -1;
   4026c:	00bfffc4 	movi	r2,-1
   40270:	00002906 	br	40318 <adv7513_chip_identify+0x10c>

	r = I2C_Read(I2C_SCL_BASE, I2C_SDA_BASE, ec->slave_addr, ADV7513_REG_CHIP_ID_LOW, &ec->chip_id[0]);
   40274:	e0bfff17 	ldw	r2,-4(fp)
   40278:	10800017 	ldw	r2,0(r2)
   4027c:	10c03fcc 	andi	r3,r2,255
   40280:	18c0201c 	xori	r3,r3,128
   40284:	18ffe004 	addi	r3,r3,-128
   40288:	e0bfff17 	ldw	r2,-4(fp)
   4028c:	10800704 	addi	r2,r2,28
   40290:	d8800015 	stw	r2,0(sp)
   40294:	01c03d84 	movi	r7,246
   40298:	180d883a 	mov	r6,r3
   4029c:	01400234 	movhi	r5,8
   402a0:	29443404 	addi	r5,r5,4304
   402a4:	01000234 	movhi	r4,8
   402a8:	21043004 	addi	r4,r4,4288
   402ac:	00499a80 	call	499a8 <I2C_Read>
   402b0:	e0bffe15 	stw	r2,-8(fp)
	if (!r)
   402b4:	e0bffe17 	ldw	r2,-8(fp)
   402b8:	1000021e 	bne	r2,zero,402c4 <adv7513_chip_identify+0xb8>
		return -2;
   402bc:	00bfff84 	movi	r2,-2
   402c0:	00001506 	br	40318 <adv7513_chip_identify+0x10c>

	r = I2C_Read(I2C_SCL_BASE, I2C_SDA_BASE, ec->slave_addr, ADV7513_REG_CHIP_ID_HIGH, &ec->chip_id[1]);
   402c4:	e0bfff17 	ldw	r2,-4(fp)
   402c8:	10800017 	ldw	r2,0(r2)
   402cc:	10c03fcc 	andi	r3,r2,255
   402d0:	18c0201c 	xori	r3,r3,128
   402d4:	18ffe004 	addi	r3,r3,-128
   402d8:	e0bfff17 	ldw	r2,-4(fp)
   402dc:	10800744 	addi	r2,r2,29
   402e0:	d8800015 	stw	r2,0(sp)
   402e4:	01c03d44 	movi	r7,245
   402e8:	180d883a 	mov	r6,r3
   402ec:	01400234 	movhi	r5,8
   402f0:	29443404 	addi	r5,r5,4304
   402f4:	01000234 	movhi	r4,8
   402f8:	21043004 	addi	r4,r4,4288
   402fc:	00499a80 	call	499a8 <I2C_Read>
   40300:	e0bffe15 	stw	r2,-8(fp)
	if (!r)
   40304:	e0bffe17 	ldw	r2,-8(fp)
   40308:	1000021e 	bne	r2,zero,40314 <adv7513_chip_identify+0x108>
		return -3;
   4030c:	00bfff44 	movi	r2,-3
   40310:	00000106 	br	40318 <adv7513_chip_identify+0x10c>

	return 0;
   40314:	0005883a 	mov	r2,zero
}
   40318:	e037883a 	mov	sp,fp
   4031c:	dfc00117 	ldw	ra,4(sp)
   40320:	df000017 	ldw	fp,0(sp)
   40324:	dec00204 	addi	sp,sp,8
   40328:	f800283a 	ret

0004032c <adv7513_hpd_probe>:

int adv7513_hpd_probe(struct hdmi_encoder *ec)
{
   4032c:	defffb04 	addi	sp,sp,-20
   40330:	dfc00415 	stw	ra,16(sp)
   40334:	df000315 	stw	fp,12(sp)
   40338:	df000304 	addi	fp,sp,12
   4033c:	e13fff15 	stw	r4,-4(fp)
	bool r = 0;
   40340:	e03ffd15 	stw	zero,-12(fp)
	alt_u8 regv = 0;
   40344:	e03ffe05 	stb	zero,-8(fp)

	ec->hpd_prev = ec->hpd_latest;
   40348:	e0bfff17 	ldw	r2,-4(fp)
   4034c:	10c00317 	ldw	r3,12(r2)
   40350:	e0bfff17 	ldw	r2,-4(fp)
   40354:	10c00215 	stw	r3,8(r2)

	r = reg_read(ec, ADV7513_REG_STATUS, &regv);
   40358:	e0bffe04 	addi	r2,fp,-8
   4035c:	100d883a 	mov	r6,r2
   40360:	01401084 	movi	r5,66
   40364:	e13fff17 	ldw	r4,-4(fp)
   40368:	0046bbc0 	call	46bbc <reg_read>
   4036c:	e0bffd15 	stw	r2,-12(fp)
	if (r != 0)
   40370:	e0bffd17 	ldw	r2,-12(fp)
   40374:	10000226 	beq	r2,zero,40380 <adv7513_hpd_probe+0x54>
		return -1;
   40378:	00bfffc4 	movi	r2,-1
   4037c:	00003106 	br	40444 <adv7513_hpd_probe+0x118>

	ec->hpd_latest = regv & ((ADV7513_STATUS_HPD) | (ADV7513_STATUS_MONITOR_SENSE));
   40380:	e0bffe03 	ldbu	r2,-8(fp)
   40384:	10803fcc 	andi	r2,r2,255
   40388:	10c0180c 	andi	r3,r2,96
   4038c:	e0bfff17 	ldw	r2,-4(fp)
   40390:	10c00315 	stw	r3,12(r2)
	ec->hpd_event = ec->hpd_latest ^ ec->hpd_prev;
   40394:	e0bfff17 	ldw	r2,-4(fp)
   40398:	10c00317 	ldw	r3,12(r2)
   4039c:	e0bfff17 	ldw	r2,-4(fp)
   403a0:	10800217 	ldw	r2,8(r2)
   403a4:	1886f03a 	xor	r3,r3,r2
   403a8:	e0bfff17 	ldw	r2,-4(fp)
   403ac:	10c00415 	stw	r3,16(r2)

	ec->hpd = 0;
   403b0:	e0bfff17 	ldw	r2,-4(fp)
   403b4:	10000515 	stw	zero,20(r2)

	if ((ec->hpd_event != 0) && ((ec->hpd_latest & ((ADV7513_STATUS_HPD) | (ADV7513_STATUS_MONITOR_SENSE))) == ((ADV7513_STATUS_HPD) | (ADV7513_STATUS_MONITOR_SENSE)))) {
   403b8:	e0bfff17 	ldw	r2,-4(fp)
   403bc:	10800417 	ldw	r2,16(r2)
   403c0:	10000926 	beq	r2,zero,403e8 <adv7513_hpd_probe+0xbc>
   403c4:	e0bfff17 	ldw	r2,-4(fp)
   403c8:	10800317 	ldw	r2,12(r2)
   403cc:	1080180c 	andi	r2,r2,96
   403d0:	10801818 	cmpnei	r2,r2,96
   403d4:	1000041e 	bne	r2,zero,403e8 <adv7513_hpd_probe+0xbc>
		// if hot-plug state changed and both HPD and monitor-sense are asserted
		ec->hpd = 1;
   403d8:	e0bfff17 	ldw	r2,-4(fp)
   403dc:	00c00044 	movi	r3,1
   403e0:	10c00515 	stw	r3,20(r2)
   403e4:	00001606 	br	40440 <adv7513_hpd_probe+0x114>
	} else {
		if ((ec->hpd_event & (ADV7513_STATUS_HPD)) && ((ec->hpd_latest & (ADV7513_STATUS_HPD)) == 0)) {
   403e8:	e0bfff17 	ldw	r2,-4(fp)
   403ec:	10800417 	ldw	r2,16(r2)
   403f0:	1080100c 	andi	r2,r2,64
   403f4:	10000726 	beq	r2,zero,40414 <adv7513_hpd_probe+0xe8>
   403f8:	e0bfff17 	ldw	r2,-4(fp)
   403fc:	10800317 	ldw	r2,12(r2)
   40400:	1080100c 	andi	r2,r2,64
   40404:	1000031e 	bne	r2,zero,40414 <adv7513_hpd_probe+0xe8>
			// if HPD state changed and HPD was de-asserted
			ec->hpd = -1;
   40408:	e0bfff17 	ldw	r2,-4(fp)
   4040c:	00ffffc4 	movi	r3,-1
   40410:	10c00515 	stw	r3,20(r2)
		}

		if ((ec->hpd_event & (ADV7513_STATUS_MONITOR_SENSE)) && ((ec->hpd_latest & (ADV7513_STATUS_MONITOR_SENSE)) == 0)) {
   40414:	e0bfff17 	ldw	r2,-4(fp)
   40418:	10800417 	ldw	r2,16(r2)
   4041c:	1080080c 	andi	r2,r2,32
   40420:	10000726 	beq	r2,zero,40440 <adv7513_hpd_probe+0x114>
   40424:	e0bfff17 	ldw	r2,-4(fp)
   40428:	10800317 	ldw	r2,12(r2)
   4042c:	1080080c 	andi	r2,r2,32
   40430:	1000031e 	bne	r2,zero,40440 <adv7513_hpd_probe+0x114>
			// if monitor-sense state changed and monitor-sense was de-asserted
			ec->hpd = -1;
   40434:	e0bfff17 	ldw	r2,-4(fp)
   40438:	00ffffc4 	movi	r3,-1
   4043c:	10c00515 	stw	r3,20(r2)
	// 0xd6[7:6] <- (2 << 6) (HPD from HPD only) & 0xc0
	//r = reg_update_bits(ec, 0xd6, 0xc0 ,0x02 << 6);
	//if (r != 0)
	//	return -1;

	return 0;
   40440:	0005883a 	mov	r2,zero
}
   40444:	e037883a 	mov	sp,fp
   40448:	dfc00117 	ldw	ra,4(sp)
   4044c:	df000017 	ldw	fp,0(sp)
   40450:	dec00204 	addi	sp,sp,8
   40454:	f800283a 	ret

00040458 <adv7513_do_hpd_powerup>:

int adv7513_do_hpd_powerup(struct hdmi_encoder *ec)
{
   40458:	defffd04 	addi	sp,sp,-12
   4045c:	dfc00215 	stw	ra,8(sp)
   40460:	df000115 	stw	fp,4(sp)
   40464:	df000104 	addi	fp,sp,4
   40468:	e13fff15 	stw	r4,-4(fp)
	printf("adv7513_do_hpd_powerup()\n");
   4046c:	010001b4 	movhi	r4,6
   40470:	21300504 	addi	r4,r4,-16364
   40474:	004d9c40 	call	4d9c4 <puts>

	// power up the encoder
	if (reg_update_bits(ec, 0x41, 0x40, 0) != 0)
   40478:	000f883a 	mov	r7,zero
   4047c:	01801004 	movi	r6,64
   40480:	01401044 	movi	r5,65
   40484:	e13fff17 	ldw	r4,-4(fp)
   40488:	0046ce40 	call	46ce4 <reg_update_bits>
   4048c:	10000226 	beq	r2,zero,40498 <adv7513_do_hpd_powerup+0x40>
		return -1;
   40490:	00bfffc4 	movi	r2,-1
   40494:	00003b06 	br	40584 <adv7513_do_hpd_powerup+0x12c>

	//usleep(150000);

	// table 14 -- fixed registers must be set after power up
	if (reg_write(ec, 0x98, 0x03) != 0)
   40498:	018000c4 	movi	r6,3
   4049c:	01402604 	movi	r5,152
   404a0:	e13fff17 	ldw	r4,-4(fp)
   404a4:	0046c440 	call	46c44 <reg_write>
   404a8:	10000226 	beq	r2,zero,404b4 <adv7513_do_hpd_powerup+0x5c>
		return -1;
   404ac:	00bfffc4 	movi	r2,-1
   404b0:	00003406 	br	40584 <adv7513_do_hpd_powerup+0x12c>
	if (reg_update_bits(ec, 0x9a, 0xe0, 0x7 << 5) != 0)
   404b4:	01c03804 	movi	r7,224
   404b8:	01803804 	movi	r6,224
   404bc:	01402684 	movi	r5,154
   404c0:	e13fff17 	ldw	r4,-4(fp)
   404c4:	0046ce40 	call	46ce4 <reg_update_bits>
   404c8:	10000226 	beq	r2,zero,404d4 <adv7513_do_hpd_powerup+0x7c>
		return -1;
   404cc:	00bfffc4 	movi	r2,-1
   404d0:	00002c06 	br	40584 <adv7513_do_hpd_powerup+0x12c>
	if (reg_write(ec, 0x9c, 0x30) != 0)
   404d4:	01800c04 	movi	r6,48
   404d8:	01402704 	movi	r5,156
   404dc:	e13fff17 	ldw	r4,-4(fp)
   404e0:	0046c440 	call	46c44 <reg_write>
   404e4:	10000226 	beq	r2,zero,404f0 <adv7513_do_hpd_powerup+0x98>
		return -1;
   404e8:	00bfffc4 	movi	r2,-1
   404ec:	00002506 	br	40584 <adv7513_do_hpd_powerup+0x12c>
	if (reg_update_bits(ec, 0x9d, 0x03, 0x01) != 0)
   404f0:	01c00044 	movi	r7,1
   404f4:	018000c4 	movi	r6,3
   404f8:	01402744 	movi	r5,157
   404fc:	e13fff17 	ldw	r4,-4(fp)
   40500:	0046ce40 	call	46ce4 <reg_update_bits>
   40504:	10000226 	beq	r2,zero,40510 <adv7513_do_hpd_powerup+0xb8>
		return -1;
   40508:	00bfffc4 	movi	r2,-1
   4050c:	00001d06 	br	40584 <adv7513_do_hpd_powerup+0x12c>
	if (reg_write(ec, 0xa2, 0xa4) != 0)
   40510:	01802904 	movi	r6,164
   40514:	01402884 	movi	r5,162
   40518:	e13fff17 	ldw	r4,-4(fp)
   4051c:	0046c440 	call	46c44 <reg_write>
   40520:	10000226 	beq	r2,zero,4052c <adv7513_do_hpd_powerup+0xd4>
		return -1;
   40524:	00bfffc4 	movi	r2,-1
   40528:	00001606 	br	40584 <adv7513_do_hpd_powerup+0x12c>
	if (reg_write(ec, 0xa3, 0xa4) != 0)
   4052c:	01802904 	movi	r6,164
   40530:	014028c4 	movi	r5,163
   40534:	e13fff17 	ldw	r4,-4(fp)
   40538:	0046c440 	call	46c44 <reg_write>
   4053c:	10000226 	beq	r2,zero,40548 <adv7513_do_hpd_powerup+0xf0>
		return -1;
   40540:	00bfffc4 	movi	r2,-1
   40544:	00000f06 	br	40584 <adv7513_do_hpd_powerup+0x12c>
	if (reg_write(ec, 0xe0, 0xd0) != 0)
   40548:	01803404 	movi	r6,208
   4054c:	01403804 	movi	r5,224
   40550:	e13fff17 	ldw	r4,-4(fp)
   40554:	0046c440 	call	46c44 <reg_write>
   40558:	10000226 	beq	r2,zero,40564 <adv7513_do_hpd_powerup+0x10c>
		return -1;
   4055c:	00bfffc4 	movi	r2,-1
   40560:	00000806 	br	40584 <adv7513_do_hpd_powerup+0x12c>
	//if (reg_write(ec, 0xf9, 0x00) != 0)  // set to a non-conflicting i2c address (suggested addr: 0x00)
	//	return -1;

	// clear hpd interrupts
	// 0x96[7:6] <- 0xc0 & 0xc0
	if (reg_write(ec, 0x96, 0xff) != 0)
   40564:	01803fc4 	movi	r6,255
   40568:	01402584 	movi	r5,150
   4056c:	e13fff17 	ldw	r4,-4(fp)
   40570:	0046c440 	call	46c44 <reg_write>
   40574:	10000226 	beq	r2,zero,40580 <adv7513_do_hpd_powerup+0x128>
		return -1;
   40578:	00bfffc4 	movi	r2,-1
   4057c:	00000106 	br	40584 <adv7513_do_hpd_powerup+0x12c>

	return 0;
   40580:	0005883a 	mov	r2,zero
}
   40584:	e037883a 	mov	sp,fp
   40588:	dfc00117 	ldw	ra,4(sp)
   4058c:	df000017 	ldw	fp,0(sp)
   40590:	dec00204 	addi	sp,sp,8
   40594:	f800283a 	ret

00040598 <adv7513_do_hpd_powerdown>:

int adv7513_do_hpd_powerdown(struct hdmi_encoder *ec)
{
   40598:	defffd04 	addi	sp,sp,-12
   4059c:	dfc00215 	stw	ra,8(sp)
   405a0:	df000115 	stw	fp,4(sp)
   405a4:	df000104 	addi	fp,sp,4
   405a8:	e13fff15 	stw	r4,-4(fp)
	// power down the encoder
	if (reg_update_bits(ec, 0x41, 0x40, 0x40) != 0)
   405ac:	01c01004 	movi	r7,64
   405b0:	01801004 	movi	r6,64
   405b4:	01401044 	movi	r5,65
   405b8:	e13fff17 	ldw	r4,-4(fp)
   405bc:	0046ce40 	call	46ce4 <reg_update_bits>
   405c0:	10000226 	beq	r2,zero,405cc <adv7513_do_hpd_powerdown+0x34>
		return -1;
   405c4:	00bfffc4 	movi	r2,-1
   405c8:	00000106 	br	405d0 <adv7513_do_hpd_powerdown+0x38>

	return 0;
   405cc:	0005883a 	mov	r2,zero
}
   405d0:	e037883a 	mov	sp,fp
   405d4:	dfc00117 	ldw	ra,4(sp)
   405d8:	df000017 	ldw	fp,0(sp)
   405dc:	dec00204 	addi	sp,sp,8
   405e0:	f800283a 	ret

000405e4 <adv7513_power_state>:

int adv7513_power_state(struct hdmi_encoder *ec, int *state)
{
   405e4:	defffa04 	addi	sp,sp,-24
   405e8:	dfc00515 	stw	ra,20(sp)
   405ec:	df000415 	stw	fp,16(sp)
   405f0:	df000404 	addi	fp,sp,16
   405f4:	e13ffe15 	stw	r4,-8(fp)
   405f8:	e17fff15 	stw	r5,-4(fp)
	bool r = 0;
   405fc:	e03ffc15 	stw	zero,-16(fp)
	alt_u8 regv = 0;
   40600:	e03ffd05 	stb	zero,-12(fp)

	r = reg_read(ec, 0x41, &regv);
   40604:	e0bffd04 	addi	r2,fp,-12
   40608:	100d883a 	mov	r6,r2
   4060c:	01401044 	movi	r5,65
   40610:	e13ffe17 	ldw	r4,-8(fp)
   40614:	0046bbc0 	call	46bbc <reg_read>
   40618:	e0bffc15 	stw	r2,-16(fp)
	if (r != 0)
   4061c:	e0bffc17 	ldw	r2,-16(fp)
   40620:	10000226 	beq	r2,zero,4062c <adv7513_power_state+0x48>
		return -1;
   40624:	00bfffc4 	movi	r2,-1
   40628:	00000406 	br	4063c <adv7513_power_state+0x58>

	if ((regv & 0x40) == 1)
		*state = 0;
	else
		*state = 1;
   4062c:	e0bfff17 	ldw	r2,-4(fp)
   40630:	00c00044 	movi	r3,1
   40634:	10c00015 	stw	r3,0(r2)

	return 0;
   40638:	0005883a 	mov	r2,zero
}
   4063c:	e037883a 	mov	sp,fp
   40640:	dfc00117 	ldw	ra,4(sp)
   40644:	df000017 	ldw	fp,0(sp)
   40648:	dec00204 	addi	sp,sp,8
   4064c:	f800283a 	ret

00040650 <adv7513_edid_read>:

int adv7513_edid_read(struct hdmi_encoder *ec, void *edid, int segment)
{
   40650:	defff704 	addi	sp,sp,-36
   40654:	dfc00815 	stw	ra,32(sp)
   40658:	df000715 	stw	fp,28(sp)
   4065c:	df000704 	addi	fp,sp,28
   40660:	e13ffd15 	stw	r4,-12(fp)
   40664:	e17ffe15 	stw	r5,-8(fp)
   40668:	e1bfff15 	stw	r6,-4(fp)
	bool r = 0;
   4066c:	e03ffc15 	stw	zero,-16(fp)
	alt_u8 *regv = (alt_u8 *)edid;
   40670:	e0bffe17 	ldw	r2,-8(fp)
   40674:	e0bffa15 	stw	r2,-24(fp)
	int i;

	for (i = 0 + segment * 256; i < (segment + 1) * 256; ++i, ++regv) {
   40678:	e0bfff17 	ldw	r2,-4(fp)
   4067c:	1004923a 	slli	r2,r2,8
   40680:	e0bffb15 	stw	r2,-20(fp)
   40684:	00001b06 	br	406f4 <adv7513_edid_read+0xa4>
		r = I2C_Read(I2C_SCL_BASE, I2C_SDA_BASE, ec->edid_addr, i, regv);
   40688:	e0bffd17 	ldw	r2,-12(fp)
   4068c:	10800117 	ldw	r2,4(r2)
   40690:	10c03fcc 	andi	r3,r2,255
   40694:	18c0201c 	xori	r3,r3,128
   40698:	18ffe004 	addi	r3,r3,-128
   4069c:	e0bffb17 	ldw	r2,-20(fp)
   406a0:	11003fcc 	andi	r4,r2,255
   406a4:	e0bffa17 	ldw	r2,-24(fp)
   406a8:	d8800015 	stw	r2,0(sp)
   406ac:	200f883a 	mov	r7,r4
   406b0:	180d883a 	mov	r6,r3
   406b4:	01400234 	movhi	r5,8
   406b8:	29443404 	addi	r5,r5,4304
   406bc:	01000234 	movhi	r4,8
   406c0:	21043004 	addi	r4,r4,4288
   406c4:	00499a80 	call	499a8 <I2C_Read>
   406c8:	e0bffc15 	stw	r2,-16(fp)
		if (!r)
   406cc:	e0bffc17 	ldw	r2,-16(fp)
   406d0:	1000021e 	bne	r2,zero,406dc <adv7513_edid_read+0x8c>
			return -1;
   406d4:	00bfffc4 	movi	r2,-1
   406d8:	00000c06 	br	4070c <adv7513_edid_read+0xbc>
{
	bool r = 0;
	alt_u8 *regv = (alt_u8 *)edid;
	int i;

	for (i = 0 + segment * 256; i < (segment + 1) * 256; ++i, ++regv) {
   406dc:	e0bffb17 	ldw	r2,-20(fp)
   406e0:	10800044 	addi	r2,r2,1
   406e4:	e0bffb15 	stw	r2,-20(fp)
   406e8:	e0bffa17 	ldw	r2,-24(fp)
   406ec:	10800044 	addi	r2,r2,1
   406f0:	e0bffa15 	stw	r2,-24(fp)
   406f4:	e0bfff17 	ldw	r2,-4(fp)
   406f8:	10800044 	addi	r2,r2,1
   406fc:	1004923a 	slli	r2,r2,8
   40700:	e0fffb17 	ldw	r3,-20(fp)
   40704:	18bfe016 	blt	r3,r2,40688 <__alt_data_end+0xfffd4768>
		r = I2C_Read(I2C_SCL_BASE, I2C_SDA_BASE, ec->edid_addr, i, regv);
		if (!r)
			return -1;
	}

	return 0;
   40708:	0005883a 	mov	r2,zero
}
   4070c:	e037883a 	mov	sp,fp
   40710:	dfc00117 	ldw	ra,4(sp)
   40714:	df000017 	ldw	fp,0(sp)
   40718:	dec00204 	addi	sp,sp,8
   4071c:	f800283a 	ret

00040720 <adv7513_regmap_dump>:

int adv7513_regmap_dump(struct hdmi_encoder *ec, void *data, int offset)
{
   40720:	defff704 	addi	sp,sp,-36
   40724:	dfc00815 	stw	ra,32(sp)
   40728:	df000715 	stw	fp,28(sp)
   4072c:	df000704 	addi	fp,sp,28
   40730:	e13ffd15 	stw	r4,-12(fp)
   40734:	e17ffe15 	stw	r5,-8(fp)
   40738:	e1bfff15 	stw	r6,-4(fp)
	bool r = 0;
   4073c:	e03ffc15 	stw	zero,-16(fp)
	alt_u8 *regv = (alt_u8 *)data;
   40740:	e0bffe17 	ldw	r2,-8(fp)
   40744:	e0bffa15 	stw	r2,-24(fp)
	int i;

	for (i = 0; i < 256; ++i, ++regv) {
   40748:	e03ffb15 	stw	zero,-20(fp)
   4074c:	00001b06 	br	407bc <adv7513_regmap_dump+0x9c>
		r = I2C_Read(I2C_SCL_BASE, I2C_SDA_BASE, ec->slave_addr, i, regv);
   40750:	e0bffd17 	ldw	r2,-12(fp)
   40754:	10800017 	ldw	r2,0(r2)
   40758:	10c03fcc 	andi	r3,r2,255
   4075c:	18c0201c 	xori	r3,r3,128
   40760:	18ffe004 	addi	r3,r3,-128
   40764:	e0bffb17 	ldw	r2,-20(fp)
   40768:	11003fcc 	andi	r4,r2,255
   4076c:	e0bffa17 	ldw	r2,-24(fp)
   40770:	d8800015 	stw	r2,0(sp)
   40774:	200f883a 	mov	r7,r4
   40778:	180d883a 	mov	r6,r3
   4077c:	01400234 	movhi	r5,8
   40780:	29443404 	addi	r5,r5,4304
   40784:	01000234 	movhi	r4,8
   40788:	21043004 	addi	r4,r4,4288
   4078c:	00499a80 	call	499a8 <I2C_Read>
   40790:	e0bffc15 	stw	r2,-16(fp)
		if (!r)
   40794:	e0bffc17 	ldw	r2,-16(fp)
   40798:	1000021e 	bne	r2,zero,407a4 <adv7513_regmap_dump+0x84>
			return -1;
   4079c:	00bfffc4 	movi	r2,-1
   407a0:	00000a06 	br	407cc <adv7513_regmap_dump+0xac>
{
	bool r = 0;
	alt_u8 *regv = (alt_u8 *)data;
	int i;

	for (i = 0; i < 256; ++i, ++regv) {
   407a4:	e0bffb17 	ldw	r2,-20(fp)
   407a8:	10800044 	addi	r2,r2,1
   407ac:	e0bffb15 	stw	r2,-20(fp)
   407b0:	e0bffa17 	ldw	r2,-24(fp)
   407b4:	10800044 	addi	r2,r2,1
   407b8:	e0bffa15 	stw	r2,-24(fp)
   407bc:	e0bffb17 	ldw	r2,-20(fp)
   407c0:	10804010 	cmplti	r2,r2,256
   407c4:	103fe21e 	bne	r2,zero,40750 <__alt_data_end+0xfffd4830>
		r = I2C_Read(I2C_SCL_BASE, I2C_SDA_BASE, ec->slave_addr, i, regv);
		if (!r)
			return -1;
	}

	return 0;
   407c8:	0005883a 	mov	r2,zero
}
   407cc:	e037883a 	mov	sp,fp
   407d0:	dfc00117 	ldw	ra,4(sp)
   407d4:	df000017 	ldw	fp,0(sp)
   407d8:	dec00204 	addi	sp,sp,8
   407dc:	f800283a 	ret

000407e0 <adv7513_video_in_format>:
// depth       - adv7513_input_color_depth
// color_space - adv7513_input_color_space
// aspect      - adv7513_input_aspect_ratio
// style       - adv7513_input_style
static int adv7513_video_in_format(struct hdmi_encoder *ec, int id, int depth, int color_space, int aspect, int style)
{
   407e0:	defff904 	addi	sp,sp,-28
   407e4:	dfc00615 	stw	ra,24(sp)
   407e8:	df000515 	stw	fp,20(sp)
   407ec:	df000504 	addi	fp,sp,20
   407f0:	e13ffc15 	stw	r4,-16(fp)
   407f4:	e17ffd15 	stw	r5,-12(fp)
   407f8:	e1bffe15 	stw	r6,-8(fp)
   407fc:	e1ffff15 	stw	r7,-4(fp)
	int regv;

	printf("adv7513_video_in_format()\n");
   40800:	010001b4 	movhi	r4,6
   40804:	21300c04 	addi	r4,r4,-16336
   40808:	004d9c40 	call	4d9c4 <puts>

	// 0x15[3:0] <- id
	if (reg_update_bits(ec, 0x15, 0x0f, id) != 0)
   4080c:	e1fffd17 	ldw	r7,-12(fp)
   40810:	018003c4 	movi	r6,15
   40814:	01400544 	movi	r5,21
   40818:	e13ffc17 	ldw	r4,-16(fp)
   4081c:	0046ce40 	call	46ce4 <reg_update_bits>
   40820:	10000226 	beq	r2,zero,4082c <adv7513_video_in_format+0x4c>
		return -1;
   40824:	00bfffc4 	movi	r2,-1
   40828:	00002006 	br	408ac <adv7513_video_in_format+0xcc>

	// 0x16[5:4] <- depth
	// 0x16[3:2] <- style
	// 0x16[0] <- color_space
	regv = ((depth & 0x03) << 4) | ((style & 0x03) << 2) | (color_space & 0x01);
   4082c:	e0bffe17 	ldw	r2,-8(fp)
   40830:	108000cc 	andi	r2,r2,3
   40834:	1006913a 	slli	r3,r2,4
   40838:	e0800317 	ldw	r2,12(fp)
   4083c:	108000cc 	andi	r2,r2,3
   40840:	1085883a 	add	r2,r2,r2
   40844:	1085883a 	add	r2,r2,r2
   40848:	1886b03a 	or	r3,r3,r2
   4084c:	e0bfff17 	ldw	r2,-4(fp)
   40850:	1080004c 	andi	r2,r2,1
   40854:	1884b03a 	or	r2,r3,r2
   40858:	e0bffb15 	stw	r2,-20(fp)
	if (reg_update_bits(ec, 0x16, 0x3d, regv) != 0)
   4085c:	e1fffb17 	ldw	r7,-20(fp)
   40860:	01800f44 	movi	r6,61
   40864:	01400584 	movi	r5,22
   40868:	e13ffc17 	ldw	r4,-16(fp)
   4086c:	0046ce40 	call	46ce4 <reg_update_bits>
   40870:	10000226 	beq	r2,zero,4087c <adv7513_video_in_format+0x9c>
		return -1;
   40874:	00bfffc4 	movi	r2,-1
   40878:	00000c06 	br	408ac <adv7513_video_in_format+0xcc>

	// 0x17[1] <- aspect
	if (reg_update_bits(ec, 0x17, 0x02, (aspect & 0x01) << 1) != 0)
   4087c:	e0800217 	ldw	r2,8(fp)
   40880:	1080004c 	andi	r2,r2,1
   40884:	1085883a 	add	r2,r2,r2
   40888:	100f883a 	mov	r7,r2
   4088c:	01800084 	movi	r6,2
   40890:	014005c4 	movi	r5,23
   40894:	e13ffc17 	ldw	r4,-16(fp)
   40898:	0046ce40 	call	46ce4 <reg_update_bits>
   4089c:	10000226 	beq	r2,zero,408a8 <adv7513_video_in_format+0xc8>
		return -1;
   408a0:	00bfffc4 	movi	r2,-1
   408a4:	00000106 	br	408ac <adv7513_video_in_format+0xcc>

	return 0;
   408a8:	0005883a 	mov	r2,zero
}
   408ac:	e037883a 	mov	sp,fp
   408b0:	dfc00117 	ldw	ra,4(sp)
   408b4:	df000017 	ldw	fp,0(sp)
   408b8:	dec00204 	addi	sp,sp,8
   408bc:	f800283a 	ret

000408c0 <adv7513_config_csc>:

// color space converter (section 4.3.8)
static int adv7513_config_csc(struct hdmi_encoder *ec, int enable, void *config)
{
   408c0:	defffa04 	addi	sp,sp,-24
   408c4:	dfc00515 	stw	ra,20(sp)
   408c8:	df000415 	stw	fp,16(sp)
   408cc:	df000404 	addi	fp,sp,16
   408d0:	e13ffd15 	stw	r4,-12(fp)
   408d4:	e17ffe15 	stw	r5,-8(fp)
   408d8:	e1bfff15 	stw	r6,-4(fp)
	printf("adv7513_config_csc()\n");
   408dc:	010001b4 	movhi	r4,6
   408e0:	21301304 	addi	r4,r4,-16308
   408e4:	004d9c40 	call	4d9c4 <puts>

	// 0x18[7] <- enable
	// 0x18[6:5] <- scaling
	// 0x18[4:0] <- csc_a1[4:0]
	int regv = (enable ? 1 : 0) << 7;
   408e8:	e0bffe17 	ldw	r2,-8(fp)
   408ec:	10000226 	beq	r2,zero,408f8 <adv7513_config_csc+0x38>
   408f0:	00802004 	movi	r2,128
   408f4:	00000106 	br	408fc <adv7513_config_csc+0x3c>
   408f8:	0005883a 	mov	r2,zero
   408fc:	e0bffc15 	stw	r2,-16(fp)
	if (reg_update_bits(ec, 0x18, 0x80, regv) != 0)
   40900:	e1fffc17 	ldw	r7,-16(fp)
   40904:	01802004 	movi	r6,128
   40908:	01400604 	movi	r5,24
   4090c:	e13ffd17 	ldw	r4,-12(fp)
   40910:	0046ce40 	call	46ce4 <reg_update_bits>
   40914:	10000226 	beq	r2,zero,40920 <adv7513_config_csc+0x60>
		return -1;
   40918:	00bfffc4 	movi	r2,-1
   4091c:	00000106 	br	40924 <adv7513_config_csc+0x64>
	// 0x2d[7:0] <- csc_c3[12:5]

	// 0x2e[4:0] <- csc_c4[4:0]
	// 0x2f[7:0] <- csc_c4[12:5]

	return 0;
   40920:	0005883a 	mov	r2,zero
}
   40924:	e037883a 	mov	sp,fp
   40928:	dfc00117 	ldw	ra,4(sp)
   4092c:	df000017 	ldw	fp,0(sp)
   40930:	dec00204 	addi	sp,sp,8
   40934:	f800283a 	ret

00040938 <adv7513_avi_infoframe>:
//   CEA-861-D --section 6.2
//   ADV7513 programmer's manual -- section 4.3.9.1
//
// 0x52 ~ 0x71
static int adv7513_avi_infoframe(struct hdmi_encoder *ec)
{
   40938:	defffb04 	addi	sp,sp,-20
   4093c:	dfc00415 	stw	ra,16(sp)
   40940:	df000315 	stw	fp,12(sp)
   40944:	df000304 	addi	fp,sp,12
   40948:	e13fff15 	stw	r4,-4(fp)
	struct avi_infoframe *avi = &ec->avi_if;
   4094c:	e0bfff17 	ldw	r2,-4(fp)
   40950:	10800904 	addi	r2,r2,36
   40954:	e0bffd15 	stw	r2,-12(fp)
	int regv;

	printf("adv7513_video_infoframe()\n");
   40958:	010001b4 	movhi	r4,6
   4095c:	21301904 	addi	r4,r4,-16284
   40960:	004d9c40 	call	4d9c4 <puts>

#if 1  // local development defaults
	avi->scan_info = 2;  		// scan
   40964:	e0bffd17 	ldw	r2,-12(fp)
   40968:	00c00084 	movi	r3,2
   4096c:	10c00015 	stw	r3,0(r2)
	avi->rgb_ycbcr = 0;			// rgb or ycbcr
   40970:	e0bffd17 	ldw	r2,-12(fp)
   40974:	10000315 	stw	zero,12(r2)
	//avi->f7 = 0;				// reserved
	avi->active_fmt = 1;		// active format r3r0 valid
   40978:	e0bffd17 	ldw	r2,-12(fp)
   4097c:	00c00044 	movi	r3,1
   40980:	10c00215 	stw	r3,8(r2)
	avi->active_fmt_ar = 8;		// active format aspect ratio
   40984:	e0bffd17 	ldw	r2,-12(fp)
   40988:	00c00204 	movi	r3,8
   4098c:	10c00415 	stw	r3,16(r2)
	avi->pict_ar = 1;			// picture aspect ratio
   40990:	e0bffd17 	ldw	r2,-12(fp)
   40994:	00c00044 	movi	r3,1
   40998:	10c00515 	stw	r3,20(r2)
	avi->colorimetry = 0;		// colorimetry
   4099c:	e0bffd17 	ldw	r2,-12(fp)
   409a0:	10000615 	stw	zero,24(r2)
	avi->colorimetry_ext = 0;	// extended colorimetry
   409a4:	e0bffd17 	ldw	r2,-12(fp)
   409a8:	10000915 	stw	zero,36(r2)
	avi->scaling = 0;			// non-uniform scaling
   409ac:	e0bffd17 	ldw	r2,-12(fp)
   409b0:	10000715 	stw	zero,28(r2)
	avi->quant = 0;				// rgb quantization range
   409b4:	e0bffd17 	ldw	r2,-12(fp)
   409b8:	10000815 	stw	zero,32(r2)
	avi->itc = 0;				// it content
   409bc:	e0bffd17 	ldw	r2,-12(fp)
   409c0:	10000a15 	stw	zero,40(r2)
	avi->pr = 0;				// pixel repetition factor
   409c4:	e0bffd17 	ldw	r2,-12(fp)
   409c8:	10000c15 	stw	zero,48(r2)
	avi->vic = 1;				// video identification code
   409cc:	e0bffd17 	ldw	r2,-12(fp)
   409d0:	00c00044 	movi	r3,1
   409d4:	10c00b15 	stw	r3,44(r2)
	avi->yq1yq0 = 0;			// ??
   409d8:	e0bffd17 	ldw	r2,-12(fp)
   409dc:	10000d15 	stw	zero,52(r2)

	avi->bar_info = 1;  		// bar fields valid
   409e0:	e0bffd17 	ldw	r2,-12(fp)
   409e4:	00c00044 	movi	r3,1
   409e8:	10c00115 	stw	r3,4(r2)
	avi->bar.top_e = 0;
   409ec:	e0bffd17 	ldw	r2,-12(fp)
   409f0:	10000e15 	stw	zero,56(r2)
	avi->bar.bottom_s = 0;
   409f4:	e0bffd17 	ldw	r2,-12(fp)
   409f8:	10000f15 	stw	zero,60(r2)
	avi->bar.left_e = 0;
   409fc:	e0bffd17 	ldw	r2,-12(fp)
   40a00:	10001015 	stw	zero,64(r2)
	avi->bar.right_s = 0;
   40a04:	e0bffd17 	ldw	r2,-12(fp)
   40a08:	10001115 	stw	zero,68(r2)
	//   0x55[6:5]
	//   0x56[5:4]

	// 0x44[4] avi infoframe enable 0)disable 1)enable
	// 0x44[3] audio infoframe enable 0)disable 1)enable
	if (reg_update_bits(ec, 0x44, 0x10, 1 << 4) != 0)
   40a0c:	01c00404 	movi	r7,16
   40a10:	01800404 	movi	r6,16
   40a14:	01401104 	movi	r5,68
   40a18:	e13fff17 	ldw	r4,-4(fp)
   40a1c:	0046ce40 	call	46ce4 <reg_update_bits>
   40a20:	10000226 	beq	r2,zero,40a2c <adv7513_avi_infoframe+0xf4>
		return -1;
   40a24:	00bfffc4 	movi	r2,-1
   40a28:	0000c406 	br	40d3c <adv7513_avi_infoframe+0x404>

	// 0x4a[7] <- auto checksum
	// 0x4a[6] avi infoframe packet update 0)locked-by-packet_buffer 1)locked-by-i2c
	// 0x4a[5] audio infoframe packet update 0)locked-by-packet_buffer 1)locked-by-i2c
	// 0x4a[4] gc packet update 0)locked-by-packet_buffer 1)locked-by-i2c
	if (reg_update_bits(ec, 0x4a, 0xc0, 3 << 6) != 0)
   40a2c:	01c03004 	movi	r7,192
   40a30:	01803004 	movi	r6,192
   40a34:	01401284 	movi	r5,74
   40a38:	e13fff17 	ldw	r4,-4(fp)
   40a3c:	0046ce40 	call	46ce4 <reg_update_bits>
   40a40:	10000226 	beq	r2,zero,40a4c <adv7513_avi_infoframe+0x114>
		return -1;
   40a44:	00bfffc4 	movi	r2,-1
   40a48:	0000bc06 	br	40d3c <adv7513_avi_infoframe+0x404>

	// 0x55[6:5] <- output format 0)rgb 1)ycbcr422 2)ycbcr444
	// 0x55[4]   <- active format indicator 0)no-data 1)valid (bar, scan, colorimetry, non-uniform-scaling, active-aspect-ratio)
	// 0x55[3:2] <- bar 0)invalid-bar 1)vertical 2)horizontal 3)both
	// 0x55[1:0] <- scan 0)no-data 1)tv 2)pc 3)none
	regv = ((avi->rgb_ycbcr & 0x03) << 5) | ((avi->active_fmt & 0x01) << 4) | ((avi->bar_info & 0x03) << 2) | ((avi->scan_info & 0x03) << 0);
   40a4c:	e0bffd17 	ldw	r2,-12(fp)
   40a50:	10800317 	ldw	r2,12(r2)
   40a54:	108000cc 	andi	r2,r2,3
   40a58:	1006917a 	slli	r3,r2,5
   40a5c:	e0bffd17 	ldw	r2,-12(fp)
   40a60:	10800217 	ldw	r2,8(r2)
   40a64:	1080004c 	andi	r2,r2,1
   40a68:	1004913a 	slli	r2,r2,4
   40a6c:	1886b03a 	or	r3,r3,r2
   40a70:	e0bffd17 	ldw	r2,-12(fp)
   40a74:	10800117 	ldw	r2,4(r2)
   40a78:	108000cc 	andi	r2,r2,3
   40a7c:	1085883a 	add	r2,r2,r2
   40a80:	1085883a 	add	r2,r2,r2
   40a84:	1886b03a 	or	r3,r3,r2
   40a88:	e0bffd17 	ldw	r2,-12(fp)
   40a8c:	10800017 	ldw	r2,0(r2)
   40a90:	108000cc 	andi	r2,r2,3
   40a94:	1884b03a 	or	r2,r3,r2
   40a98:	e0bffe15 	stw	r2,-8(fp)
	if (reg_update_bits(ec, 0x55, 0x70, regv) != 0)
   40a9c:	e1fffe17 	ldw	r7,-8(fp)
   40aa0:	01801c04 	movi	r6,112
   40aa4:	01401544 	movi	r5,85
   40aa8:	e13fff17 	ldw	r4,-4(fp)
   40aac:	0046ce40 	call	46ce4 <reg_update_bits>
   40ab0:	10000226 	beq	r2,zero,40abc <adv7513_avi_infoframe+0x184>
		return -1;
   40ab4:	00bfffc4 	movi	r2,-1
   40ab8:	0000a006 	br	40d3c <adv7513_avi_infoframe+0x404>

	// 0x56[7:6] <- colorimetry 0)no-data 1)ITU601 2)ITU709 3)extended <- 0x57[6:4]
	// 0x56[5:4] <- picture aspect ratio 0)no-data 1)4:3 2)16:9 3)none
	// 0x56[3:0] <- active aspect ratio 8)same as 0x56[5:4] 9)4:3 10)16:0 11)14:9
	regv = ((avi->colorimetry & 0x03) << 6) | ((avi->pict_ar & 0x03) << 4) | ((avi->active_fmt_ar & 0x0f) << 0);
   40abc:	e0bffd17 	ldw	r2,-12(fp)
   40ac0:	10800617 	ldw	r2,24(r2)
   40ac4:	100491ba 	slli	r2,r2,6
   40ac8:	10c03fcc 	andi	r3,r2,255
   40acc:	e0bffd17 	ldw	r2,-12(fp)
   40ad0:	10800517 	ldw	r2,20(r2)
   40ad4:	108000cc 	andi	r2,r2,3
   40ad8:	1004913a 	slli	r2,r2,4
   40adc:	1886b03a 	or	r3,r3,r2
   40ae0:	e0bffd17 	ldw	r2,-12(fp)
   40ae4:	10800417 	ldw	r2,16(r2)
   40ae8:	108003cc 	andi	r2,r2,15
   40aec:	1884b03a 	or	r2,r3,r2
   40af0:	e0bffe15 	stw	r2,-8(fp)
	if (reg_write(ec, 0x56, regv) != 0)
   40af4:	e1bffe17 	ldw	r6,-8(fp)
   40af8:	01401584 	movi	r5,86
   40afc:	e13fff17 	ldw	r4,-4(fp)
   40b00:	0046c440 	call	46c44 <reg_write>
   40b04:	10000226 	beq	r2,zero,40b10 <adv7513_avi_infoframe+0x1d8>
		return -1;
   40b08:	00bfffc4 	movi	r2,-1
   40b0c:	00008b06 	br	40d3c <adv7513_avi_infoframe+0x404>

	// 0x57[7] <- itc 0)none 1)available in 0x59[5:4]
	// 0x57[6:4] <- extended colorimetry 0)xvYCC601 1)xvYCC701 2)sYCC601 3)AdobeYCC601 4)AdobeRGB
	// 0x57[3:2] <- rgb quantization range 0)default 1)limited 2)full 11)reserved
	// 0x57[1:0] <- non-uniform picture scaling 0)unknown 1)h-scaling 2) v-scaling 3)h/v scaling
	regv = ((avi->itc & 0x01) << 7) | ((avi->colorimetry_ext & 0x07) << 4) | ((avi->quant & 0x03) << 2) | ((avi->scaling & 0x03) << 0);
   40b10:	e0bffd17 	ldw	r2,-12(fp)
   40b14:	10800a17 	ldw	r2,40(r2)
   40b18:	100491fa 	slli	r2,r2,7
   40b1c:	10c03fcc 	andi	r3,r2,255
   40b20:	e0bffd17 	ldw	r2,-12(fp)
   40b24:	10800917 	ldw	r2,36(r2)
   40b28:	108001cc 	andi	r2,r2,7
   40b2c:	1004913a 	slli	r2,r2,4
   40b30:	1886b03a 	or	r3,r3,r2
   40b34:	e0bffd17 	ldw	r2,-12(fp)
   40b38:	10800817 	ldw	r2,32(r2)
   40b3c:	108000cc 	andi	r2,r2,3
   40b40:	1085883a 	add	r2,r2,r2
   40b44:	1085883a 	add	r2,r2,r2
   40b48:	1886b03a 	or	r3,r3,r2
   40b4c:	e0bffd17 	ldw	r2,-12(fp)
   40b50:	10800717 	ldw	r2,28(r2)
   40b54:	108000cc 	andi	r2,r2,3
   40b58:	1884b03a 	or	r2,r3,r2
   40b5c:	e0bffe15 	stw	r2,-8(fp)
	if (reg_write(ec, 0x57, regv) != 0)
   40b60:	e1bffe17 	ldw	r6,-8(fp)
   40b64:	014015c4 	movi	r5,87
   40b68:	e13fff17 	ldw	r4,-4(fp)
   40b6c:	0046c440 	call	46c44 <reg_write>
   40b70:	10000226 	beq	r2,zero,40b7c <adv7513_avi_infoframe+0x244>
		return -1;
   40b74:	00bfffc4 	movi	r2,-1
   40b78:	00007006 	br	40d3c <adv7513_avi_infoframe+0x404>

	// 0x59[7:4] <- extended colorimetry 0)xvYCC601 1)xvYCC701 2)sYCC601 3)AdobeYCC601 4)AdobeRGB
	regv = ((avi->yq1yq0 & 0x0f) << 4);
   40b7c:	e0bffd17 	ldw	r2,-12(fp)
   40b80:	10800d17 	ldw	r2,52(r2)
   40b84:	1004913a 	slli	r2,r2,4
   40b88:	10803fcc 	andi	r2,r2,255
   40b8c:	e0bffe15 	stw	r2,-8(fp)
	if (reg_write(ec, 0x59, regv) != 0)
   40b90:	e1bffe17 	ldw	r6,-8(fp)
   40b94:	01401644 	movi	r5,89
   40b98:	e13fff17 	ldw	r4,-4(fp)
   40b9c:	0046c440 	call	46c44 <reg_write>
   40ba0:	10000226 	beq	r2,zero,40bac <adv7513_avi_infoframe+0x274>
		return -1;
   40ba4:	00bfffc4 	movi	r2,-1
   40ba8:	00006406 	br	40d3c <adv7513_avi_infoframe+0x404>

	// 0x5a[7:0] <- active line (bar)
	regv = avi->bar.top_e & 0xff;
   40bac:	e0bffd17 	ldw	r2,-12(fp)
   40bb0:	10800e17 	ldw	r2,56(r2)
   40bb4:	10803fcc 	andi	r2,r2,255
   40bb8:	e0bffe15 	stw	r2,-8(fp)
	if (reg_write(ec, 0x5a, regv) != 0)
   40bbc:	e1bffe17 	ldw	r6,-8(fp)
   40bc0:	01401684 	movi	r5,90
   40bc4:	e13fff17 	ldw	r4,-4(fp)
   40bc8:	0046c440 	call	46c44 <reg_write>
   40bcc:	10000226 	beq	r2,zero,40bd8 <adv7513_avi_infoframe+0x2a0>
		return -1;
   40bd0:	00bfffc4 	movi	r2,-1
   40bd4:	00005906 	br	40d3c <adv7513_avi_infoframe+0x404>

	// 0x5b[7:0] <- active line (bar)
	regv = (avi->bar.top_e >> 8) & 0xff;
   40bd8:	e0bffd17 	ldw	r2,-12(fp)
   40bdc:	10800e17 	ldw	r2,56(r2)
   40be0:	1005d23a 	srai	r2,r2,8
   40be4:	10803fcc 	andi	r2,r2,255
   40be8:	e0bffe15 	stw	r2,-8(fp)
	if (reg_write(ec, 0x5b, regv) != 0)
   40bec:	e1bffe17 	ldw	r6,-8(fp)
   40bf0:	014016c4 	movi	r5,91
   40bf4:	e13fff17 	ldw	r4,-4(fp)
   40bf8:	0046c440 	call	46c44 <reg_write>
   40bfc:	10000226 	beq	r2,zero,40c08 <adv7513_avi_infoframe+0x2d0>
		return -1;
   40c00:	00bfffc4 	movi	r2,-1
   40c04:	00004d06 	br	40d3c <adv7513_avi_infoframe+0x404>

	// 0x5c[7:0] <- active line (bar)
	regv = avi->bar.bottom_s & 0xff;
   40c08:	e0bffd17 	ldw	r2,-12(fp)
   40c0c:	10800f17 	ldw	r2,60(r2)
   40c10:	10803fcc 	andi	r2,r2,255
   40c14:	e0bffe15 	stw	r2,-8(fp)
	if (reg_write(ec, 0x5c, regv) != 0)
   40c18:	e1bffe17 	ldw	r6,-8(fp)
   40c1c:	01401704 	movi	r5,92
   40c20:	e13fff17 	ldw	r4,-4(fp)
   40c24:	0046c440 	call	46c44 <reg_write>
   40c28:	10000226 	beq	r2,zero,40c34 <adv7513_avi_infoframe+0x2fc>
		return -1;
   40c2c:	00bfffc4 	movi	r2,-1
   40c30:	00004206 	br	40d3c <adv7513_avi_infoframe+0x404>

	// 0x5d[7:0] <- active line (bar)
	regv = (avi->bar.bottom_s >> 8) & 0xff;
   40c34:	e0bffd17 	ldw	r2,-12(fp)
   40c38:	10800f17 	ldw	r2,60(r2)
   40c3c:	1005d23a 	srai	r2,r2,8
   40c40:	10803fcc 	andi	r2,r2,255
   40c44:	e0bffe15 	stw	r2,-8(fp)
	if (reg_write(ec, 0x5d, regv) != 0)
   40c48:	e1bffe17 	ldw	r6,-8(fp)
   40c4c:	01401744 	movi	r5,93
   40c50:	e13fff17 	ldw	r4,-4(fp)
   40c54:	0046c440 	call	46c44 <reg_write>
   40c58:	10000226 	beq	r2,zero,40c64 <adv7513_avi_infoframe+0x32c>
		return -1;
   40c5c:	00bfffc4 	movi	r2,-1
   40c60:	00003606 	br	40d3c <adv7513_avi_infoframe+0x404>

	// 0x5e[7:0] <- active line (bar)
	regv = avi->bar.left_e & 0xff;
   40c64:	e0bffd17 	ldw	r2,-12(fp)
   40c68:	10801017 	ldw	r2,64(r2)
   40c6c:	10803fcc 	andi	r2,r2,255
   40c70:	e0bffe15 	stw	r2,-8(fp)
	if (reg_write(ec, 0x5e, regv) != 0)
   40c74:	e1bffe17 	ldw	r6,-8(fp)
   40c78:	01401784 	movi	r5,94
   40c7c:	e13fff17 	ldw	r4,-4(fp)
   40c80:	0046c440 	call	46c44 <reg_write>
   40c84:	10000226 	beq	r2,zero,40c90 <adv7513_avi_infoframe+0x358>
		return -1;
   40c88:	00bfffc4 	movi	r2,-1
   40c8c:	00002b06 	br	40d3c <adv7513_avi_infoframe+0x404>

	// 0x5f[7:0] <- active line (bar)
	regv = (avi->bar.left_e >> 8) & 0xff;
   40c90:	e0bffd17 	ldw	r2,-12(fp)
   40c94:	10801017 	ldw	r2,64(r2)
   40c98:	1005d23a 	srai	r2,r2,8
   40c9c:	10803fcc 	andi	r2,r2,255
   40ca0:	e0bffe15 	stw	r2,-8(fp)
	if (reg_write(ec, 0x5f, regv) != 0)
   40ca4:	e1bffe17 	ldw	r6,-8(fp)
   40ca8:	014017c4 	movi	r5,95
   40cac:	e13fff17 	ldw	r4,-4(fp)
   40cb0:	0046c440 	call	46c44 <reg_write>
   40cb4:	10000226 	beq	r2,zero,40cc0 <adv7513_avi_infoframe+0x388>
		return -1;
   40cb8:	00bfffc4 	movi	r2,-1
   40cbc:	00001f06 	br	40d3c <adv7513_avi_infoframe+0x404>

	// 0x60[7:0] <- active line (bar)
	regv = avi->bar.right_s & 0xff;
   40cc0:	e0bffd17 	ldw	r2,-12(fp)
   40cc4:	10801117 	ldw	r2,68(r2)
   40cc8:	10803fcc 	andi	r2,r2,255
   40ccc:	e0bffe15 	stw	r2,-8(fp)
	if (reg_write(ec, 0x60, regv) != 0)
   40cd0:	e1bffe17 	ldw	r6,-8(fp)
   40cd4:	01401804 	movi	r5,96
   40cd8:	e13fff17 	ldw	r4,-4(fp)
   40cdc:	0046c440 	call	46c44 <reg_write>
   40ce0:	10000226 	beq	r2,zero,40cec <adv7513_avi_infoframe+0x3b4>
		return -1;
   40ce4:	00bfffc4 	movi	r2,-1
   40ce8:	00001406 	br	40d3c <adv7513_avi_infoframe+0x404>

	// 0x61[7:0] <- active line (bar)
	regv = (avi->bar.right_s >> 8) & 0xff;
   40cec:	e0bffd17 	ldw	r2,-12(fp)
   40cf0:	10801117 	ldw	r2,68(r2)
   40cf4:	1005d23a 	srai	r2,r2,8
   40cf8:	10803fcc 	andi	r2,r2,255
   40cfc:	e0bffe15 	stw	r2,-8(fp)
	if (reg_write(ec, 0x61, regv) != 0)
   40d00:	e1bffe17 	ldw	r6,-8(fp)
   40d04:	01401844 	movi	r5,97
   40d08:	e13fff17 	ldw	r4,-4(fp)
   40d0c:	0046c440 	call	46c44 <reg_write>
   40d10:	10000226 	beq	r2,zero,40d1c <adv7513_avi_infoframe+0x3e4>
		return -1;
   40d14:	00bfffc4 	movi	r2,-1
   40d18:	00000806 	br	40d3c <adv7513_avi_infoframe+0x404>

	// 0x4a[7] <- auto checksum
	// 0x4a[6] avi infoframe packet update 0)locked-by-packet_buffer 1)locked-by-i2c
	// 0x4a[5] audio infoframe packet update 0)locked-by-packet_buffer 1)locked-by-i2c
	// 0x4a[4] gc packet update 0)locked-by-packet_buffer 1)locked-by-i2c
	if (reg_clear_bits(ec, 0x4a, 0x40) != 0)
   40d1c:	01801004 	movi	r6,64
   40d20:	01401284 	movi	r5,74
   40d24:	e13fff17 	ldw	r4,-4(fp)
   40d28:	0046f3c0 	call	46f3c <reg_clear_bits>
   40d2c:	10000226 	beq	r2,zero,40d38 <adv7513_avi_infoframe+0x400>
		return -1;
   40d30:	00bfffc4 	movi	r2,-1
   40d34:	00000106 	br	40d3c <adv7513_avi_infoframe+0x404>

	return 0;
   40d38:	0005883a 	mov	r2,zero
}
   40d3c:	e037883a 	mov	sp,fp
   40d40:	dfc00117 	ldw	ra,4(sp)
   40d44:	df000017 	ldw	fp,0(sp)
   40d48:	dec00204 	addi	sp,sp,8
   40d4c:	f800283a 	ret

00040d50 <adv7513_video_out_format>:
// out video format
//
// format   - adv7513_output_format
// dvi		- adv7513_hdmi_dvi
static int adv7513_video_out_format(struct hdmi_encoder *ec, int format, int dvi)
{
   40d50:	defffa04 	addi	sp,sp,-24
   40d54:	dfc00515 	stw	ra,20(sp)
   40d58:	df000415 	stw	fp,16(sp)
   40d5c:	df000404 	addi	fp,sp,16
   40d60:	e13ffd15 	stw	r4,-12(fp)
   40d64:	e17ffe15 	stw	r5,-8(fp)
   40d68:	e1bfff15 	stw	r6,-4(fp)
	int regv;

	printf("adv7513_video_out_format()\n");
   40d6c:	010001b4 	movhi	r4,6
   40d70:	21302004 	addi	r4,r4,-16256
   40d74:	004d9c40 	call	4d9c4 <puts>

	// 0x16[7] <- format
	regv = (format & 0x01) << 7;
   40d78:	e0bffe17 	ldw	r2,-8(fp)
   40d7c:	100491fa 	slli	r2,r2,7
   40d80:	10803fcc 	andi	r2,r2,255
   40d84:	e0bffc15 	stw	r2,-16(fp)
	if (reg_update_bits(ec, 0x16, 0x80, regv) != 0)
   40d88:	e1fffc17 	ldw	r7,-16(fp)
   40d8c:	01802004 	movi	r6,128
   40d90:	01400584 	movi	r5,22
   40d94:	e13ffd17 	ldw	r4,-12(fp)
   40d98:	0046ce40 	call	46ce4 <reg_update_bits>
   40d9c:	10000226 	beq	r2,zero,40da8 <adv7513_video_out_format+0x58>
		return -1;
   40da0:	00bfffc4 	movi	r2,-1
   40da4:	00002d06 	br	40e5c <adv7513_video_out_format+0x10c>

	// 0x18 ~ 0x2f
	if (adv7513_config_csc(ec, 0, 0) != 0) {
   40da8:	000d883a 	mov	r6,zero
   40dac:	000b883a 	mov	r5,zero
   40db0:	e13ffd17 	ldw	r4,-12(fp)
   40db4:	00408c00 	call	408c0 <adv7513_config_csc>
   40db8:	10000226 	beq	r2,zero,40dc4 <adv7513_video_out_format+0x74>
		return -1;
   40dbc:	00bfffc4 	movi	r2,-1
   40dc0:	00002606 	br	40e5c <adv7513_video_out_format+0x10c>
	}

	// 0xaf[7] <- hdcp (enable/disable)
	// 0xaf[1] <- dvi (section 4.2.2)
	if (reg_update_bits(ec, 0xaf, 0x82, (dvi & 0x01) << 1) != 0)
   40dc4:	e0bfff17 	ldw	r2,-4(fp)
   40dc8:	1080004c 	andi	r2,r2,1
   40dcc:	1085883a 	add	r2,r2,r2
   40dd0:	100f883a 	mov	r7,r2
   40dd4:	01802084 	movi	r6,130
   40dd8:	01402bc4 	movi	r5,175
   40ddc:	e13ffd17 	ldw	r4,-12(fp)
   40de0:	0046ce40 	call	46ce4 <reg_update_bits>
   40de4:	10000226 	beq	r2,zero,40df0 <adv7513_video_out_format+0xa0>
		return -1;
   40de8:	00bfffc4 	movi	r2,-1
   40dec:	00001b06 	br	40e5c <adv7513_video_out_format+0x10c>

	// general control packet
	// 0x40[7] <- gc (section 4.2.3 && 4.3.3)
	if (dvi == ADV7513_MODE_HDMI) {
   40df0:	e0bfff17 	ldw	r2,-4(fp)
   40df4:	10800058 	cmpnei	r2,r2,1
   40df8:	1000081e 	bne	r2,zero,40e1c <adv7513_video_out_format+0xcc>
		if (reg_update_bits(ec, 0x40, 0x80, (1 & 0x01) << 7) != 0)
   40dfc:	01c02004 	movi	r7,128
   40e00:	01802004 	movi	r6,128
   40e04:	01401004 	movi	r5,64
   40e08:	e13ffd17 	ldw	r4,-12(fp)
   40e0c:	0046ce40 	call	46ce4 <reg_update_bits>
   40e10:	10000926 	beq	r2,zero,40e38 <adv7513_video_out_format+0xe8>
			return -1;
   40e14:	00bfffc4 	movi	r2,-1
   40e18:	00001006 	br	40e5c <adv7513_video_out_format+0x10c>
	} else {
		if (reg_clear_bits(ec, 0x40, 0x80) != 0)
   40e1c:	01802004 	movi	r6,128
   40e20:	01401004 	movi	r5,64
   40e24:	e13ffd17 	ldw	r4,-12(fp)
   40e28:	0046f3c0 	call	46f3c <reg_clear_bits>
   40e2c:	10000226 	beq	r2,zero,40e38 <adv7513_video_out_format+0xe8>
			return -1;
   40e30:	00bfffc4 	movi	r2,-1
   40e34:	00000906 	br	40e5c <adv7513_video_out_format+0x10c>
	}

	// 0x4c[3:0] <- gc_depth (section 4.2.6)
	if (reg_update_bits(ec, 0x4c, 0x0f, 4 & 0x0f) != 0)
   40e38:	01c00104 	movi	r7,4
   40e3c:	018003c4 	movi	r6,15
   40e40:	01401304 	movi	r5,76
   40e44:	e13ffd17 	ldw	r4,-12(fp)
   40e48:	0046ce40 	call	46ce4 <reg_update_bits>
   40e4c:	10000226 	beq	r2,zero,40e58 <adv7513_video_out_format+0x108>
		return -1;
   40e50:	00bfffc4 	movi	r2,-1
   40e54:	00000106 	br	40e5c <adv7513_video_out_format+0x10c>
	// 0x3c[5:0] <- 0x01 & 0x3f
	//if (reg_update_bits(ec, 0x3c, 0x3f, 0x01) != 0)
	//	return -1;


	return 0;
   40e58:	0005883a 	mov	r2,zero
}
   40e5c:	e037883a 	mov	sp,fp
   40e60:	dfc00117 	ldw	ra,4(sp)
   40e64:	df000017 	ldw	fp,0(sp)
   40e68:	dec00204 	addi	sp,sp,8
   40e6c:	f800283a 	ret

00040e70 <adv7513_sync_adj>:
// hs  - hsync duration
// vfp - vsync placement (front-porch)
// vs  - vsync duration
// off - vsync placement offset (for interlaced formats)
static int adv7513_sync_adj(struct hdmi_encoder *ec, int enable, int hfp, int hs, int vfp, int vs, int off)
{
   40e70:	defff904 	addi	sp,sp,-28
   40e74:	dfc00615 	stw	ra,24(sp)
   40e78:	df000515 	stw	fp,20(sp)
   40e7c:	df000504 	addi	fp,sp,20
   40e80:	e13ffc15 	stw	r4,-16(fp)
   40e84:	e17ffd15 	stw	r5,-12(fp)
   40e88:	e1bffe15 	stw	r6,-8(fp)
   40e8c:	e1ffff15 	stw	r7,-4(fp)
	printf("adv7513_sync_adj()\n");
   40e90:	010001b4 	movhi	r4,6
   40e94:	21302704 	addi	r4,r4,-16228
   40e98:	004d9c40 	call	4d9c4 <puts>

	if (enable == 0) {
   40e9c:	e0bffd17 	ldw	r2,-12(fp)
   40ea0:	1000081e 	bne	r2,zero,40ec4 <adv7513_sync_adj+0x54>

		// enable sync adj
		// 0x41[1] <- 0
		if (reg_update_bits(ec, 0x41, 0x02, 0 << 1) != 0)
   40ea4:	000f883a 	mov	r7,zero
   40ea8:	01800084 	movi	r6,2
   40eac:	01401044 	movi	r5,65
   40eb0:	e13ffc17 	ldw	r4,-16(fp)
   40eb4:	0046ce40 	call	46ce4 <reg_update_bits>
   40eb8:	10005626 	beq	r2,zero,41014 <adv7513_sync_adj+0x1a4>
			return -1;
   40ebc:	00bfffc4 	movi	r2,-1
   40ec0:	00005506 	br	41018 <adv7513_sync_adj+0x1a8>

	} else {

		// 0xd7[7:0] <- hfp[7:0]
		int regv = hfp & 0xff;
   40ec4:	e0bffe17 	ldw	r2,-8(fp)
   40ec8:	10803fcc 	andi	r2,r2,255
   40ecc:	e0bffb15 	stw	r2,-20(fp)
		if (reg_write(ec, 0xd7, regv) != 0)
   40ed0:	e1bffb17 	ldw	r6,-20(fp)
   40ed4:	014035c4 	movi	r5,215
   40ed8:	e13ffc17 	ldw	r4,-16(fp)
   40edc:	0046c440 	call	46c44 <reg_write>
   40ee0:	10000226 	beq	r2,zero,40eec <adv7513_sync_adj+0x7c>
			return -1;
   40ee4:	00bfffc4 	movi	r2,-1
   40ee8:	00004b06 	br	41018 <adv7513_sync_adj+0x1a8>

		// 0xd8[7:6] <- hfp[9:8]
		// 0xd8[5:0] <- hs[5:0]
		regv = ((hfp >> 8) << 6) | (hs & 0x3f);
   40eec:	e0bffe17 	ldw	r2,-8(fp)
   40ef0:	1005d23a 	srai	r2,r2,8
   40ef4:	100691ba 	slli	r3,r2,6
   40ef8:	e0bfff17 	ldw	r2,-4(fp)
   40efc:	10800fcc 	andi	r2,r2,63
   40f00:	1884b03a 	or	r2,r3,r2
   40f04:	e0bffb15 	stw	r2,-20(fp)
		if (reg_write(ec, 0xd8, regv) != 0)
   40f08:	e1bffb17 	ldw	r6,-20(fp)
   40f0c:	01403604 	movi	r5,216
   40f10:	e13ffc17 	ldw	r4,-16(fp)
   40f14:	0046c440 	call	46c44 <reg_write>
   40f18:	10000226 	beq	r2,zero,40f24 <adv7513_sync_adj+0xb4>
			return -1;
   40f1c:	00bfffc4 	movi	r2,-1
   40f20:	00003d06 	br	41018 <adv7513_sync_adj+0x1a8>

		// 0xd9[7:4] <- hs[9:6]
		// 0xd9[3:0] <- vfp[3:0]
		regv = ((hs >> 6) << 4) | (vfp & 0x0f);
   40f24:	e0bfff17 	ldw	r2,-4(fp)
   40f28:	1005d1ba 	srai	r2,r2,6
   40f2c:	1006913a 	slli	r3,r2,4
   40f30:	e0800217 	ldw	r2,8(fp)
   40f34:	108003cc 	andi	r2,r2,15
   40f38:	1884b03a 	or	r2,r3,r2
   40f3c:	e0bffb15 	stw	r2,-20(fp)
		if (reg_write(ec, 0xd9, regv) != 0)
   40f40:	e1bffb17 	ldw	r6,-20(fp)
   40f44:	01403644 	movi	r5,217
   40f48:	e13ffc17 	ldw	r4,-16(fp)
   40f4c:	0046c440 	call	46c44 <reg_write>
   40f50:	10000226 	beq	r2,zero,40f5c <adv7513_sync_adj+0xec>
			return -1;
   40f54:	00bfffc4 	movi	r2,-1
   40f58:	00002f06 	br	41018 <adv7513_sync_adj+0x1a8>

		// 0xda[7:2] <- vfp[9:4]
		// 0xda[1:0] <- vs[1:0]
		regv = ((vfp >> 4) << 2) | (vs & 0x03);
   40f5c:	e0800217 	ldw	r2,8(fp)
   40f60:	1005d13a 	srai	r2,r2,4
   40f64:	1085883a 	add	r2,r2,r2
   40f68:	1085883a 	add	r2,r2,r2
   40f6c:	1007883a 	mov	r3,r2
   40f70:	e0800317 	ldw	r2,12(fp)
   40f74:	108000cc 	andi	r2,r2,3
   40f78:	1884b03a 	or	r2,r3,r2
   40f7c:	e0bffb15 	stw	r2,-20(fp)
		if (reg_write(ec, 0xda, regv) != 0)
   40f80:	e1bffb17 	ldw	r6,-20(fp)
   40f84:	01403684 	movi	r5,218
   40f88:	e13ffc17 	ldw	r4,-16(fp)
   40f8c:	0046c440 	call	46c44 <reg_write>
   40f90:	10000226 	beq	r2,zero,40f9c <adv7513_sync_adj+0x12c>
			return -1;
   40f94:	00bfffc4 	movi	r2,-1
   40f98:	00001f06 	br	41018 <adv7513_sync_adj+0x1a8>

		// 0xdb[7:0] <- hfp[9:2]
		regv = vs >> 2;
   40f9c:	e0800317 	ldw	r2,12(fp)
   40fa0:	1005d0ba 	srai	r2,r2,2
   40fa4:	e0bffb15 	stw	r2,-20(fp)
		if (reg_write(ec, 0xdb, regv) != 0)
   40fa8:	e1bffb17 	ldw	r6,-20(fp)
   40fac:	014036c4 	movi	r5,219
   40fb0:	e13ffc17 	ldw	r4,-16(fp)
   40fb4:	0046c440 	call	46c44 <reg_write>
   40fb8:	10000226 	beq	r2,zero,40fc4 <adv7513_sync_adj+0x154>
			return -1;
   40fbc:	00bfffc4 	movi	r2,-1
   40fc0:	00001506 	br	41018 <adv7513_sync_adj+0x1a8>

		// 0xdc[7:5] <- off[2:0]
		regv = (off & 0x07) << 5;
   40fc4:	e0800417 	ldw	r2,16(fp)
   40fc8:	1004917a 	slli	r2,r2,5
   40fcc:	10803fcc 	andi	r2,r2,255
   40fd0:	e0bffb15 	stw	r2,-20(fp)
		if (reg_update_bits(ec, 0xdc, 0xe0, regv) != 0)
   40fd4:	e1fffb17 	ldw	r7,-20(fp)
   40fd8:	01803804 	movi	r6,224
   40fdc:	01403704 	movi	r5,220
   40fe0:	e13ffc17 	ldw	r4,-16(fp)
   40fe4:	0046ce40 	call	46ce4 <reg_update_bits>
   40fe8:	10000226 	beq	r2,zero,40ff4 <adv7513_sync_adj+0x184>
			return -1;
   40fec:	00bfffc4 	movi	r2,-1
   40ff0:	00000906 	br	41018 <adv7513_sync_adj+0x1a8>

		// enable sync adj
		// 0x41[1] <- 1
		if (reg_update_bits(ec, 0x41, 0x02, 1 << 1) != 0)
   40ff4:	01c00084 	movi	r7,2
   40ff8:	01800084 	movi	r6,2
   40ffc:	01401044 	movi	r5,65
   41000:	e13ffc17 	ldw	r4,-16(fp)
   41004:	0046ce40 	call	46ce4 <reg_update_bits>
   41008:	10000226 	beq	r2,zero,41014 <adv7513_sync_adj+0x1a4>
			return -1;
   4100c:	00bfffc4 	movi	r2,-1
   41010:	00000106 	br	41018 <adv7513_sync_adj+0x1a8>
	}

	return 0;
   41014:	0005883a 	mov	r2,zero
}
   41018:	e037883a 	mov	sp,fp
   4101c:	dfc00117 	ldw	ra,4(sp)
   41020:	df000017 	ldw	fp,0(sp)
   41024:	dec00204 	addi	sp,sp,8
   41028:	f800283a 	ret

0004102c <adv7513_de_gen>:
// vb   - vsync delay (v-blank)
// w    - active width
// h    - active height
// ioff - interlace offset
static int adv7513_de_gen(struct hdmi_encoder *ec, int enable, int hb, int w, int vb, int h, int ioff)
{
   4102c:	defff904 	addi	sp,sp,-28
   41030:	dfc00615 	stw	ra,24(sp)
   41034:	df000515 	stw	fp,20(sp)
   41038:	df000504 	addi	fp,sp,20
   4103c:	e13ffc15 	stw	r4,-16(fp)
   41040:	e17ffd15 	stw	r5,-12(fp)
   41044:	e1bffe15 	stw	r6,-8(fp)
   41048:	e1ffff15 	stw	r7,-4(fp)
	int regv = 0;
   4104c:	e03ffb15 	stw	zero,-20(fp)

	printf("adv7513_de_gen()\n");
   41050:	010001b4 	movhi	r4,6
   41054:	21302c04 	addi	r4,r4,-16208
   41058:	004d9c40 	call	4d9c4 <puts>

	if (enable == 0) {
   4105c:	e0bffd17 	ldw	r2,-12(fp)
   41060:	1000081e 	bne	r2,zero,41084 <adv7513_de_gen+0x58>
		//	return -1;

		// 0x17[6] <- vsync polarity 0)pass-through 1)invert
		// 0x17[5] <- hsync polarity 0)pass-through 1)invert
		// 0x17[0] <- de-gen enable
		if (reg_update_bits(ec, 0x17, 0x61, 0x00) != 0)
   41064:	000f883a 	mov	r7,zero
   41068:	01801844 	movi	r6,97
   4106c:	014005c4 	movi	r5,23
   41070:	e13ffc17 	ldw	r4,-16(fp)
   41074:	0046ce40 	call	46ce4 <reg_update_bits>
   41078:	10007626 	beq	r2,zero,41254 <adv7513_de_gen+0x228>
			return -1;
   4107c:	00bfffc4 	movi	r2,-1
   41080:	00007506 	br	41258 <adv7513_de_gen+0x22c>

	} else {

		// 0x35[7:0] <- hb[9:2]
		if (reg_write(ec, 0x35, hb >> 2) != 0)
   41084:	e0bffe17 	ldw	r2,-8(fp)
   41088:	1005d0ba 	srai	r2,r2,2
   4108c:	100d883a 	mov	r6,r2
   41090:	01400d44 	movi	r5,53
   41094:	e13ffc17 	ldw	r4,-16(fp)
   41098:	0046c440 	call	46c44 <reg_write>
   4109c:	10000226 	beq	r2,zero,410a8 <adv7513_de_gen+0x7c>
			return -1;
   410a0:	00bfffc4 	movi	r2,-1
   410a4:	00006c06 	br	41258 <adv7513_de_gen+0x22c>

		// 0x36[7:6] <- hb[1:0]
		// 0x36[5:0] <- vb[5:0]
		regv = ((hb & 0x03) << 6) | (vb & 0x1f);
   410a8:	e0bffe17 	ldw	r2,-8(fp)
   410ac:	100491ba 	slli	r2,r2,6
   410b0:	10c03fcc 	andi	r3,r2,255
   410b4:	e0800217 	ldw	r2,8(fp)
   410b8:	108007cc 	andi	r2,r2,31
   410bc:	1884b03a 	or	r2,r3,r2
   410c0:	e0bffb15 	stw	r2,-20(fp)
		if (reg_write(ec, 0x36, regv) != 0)
   410c4:	e1bffb17 	ldw	r6,-20(fp)
   410c8:	01400d84 	movi	r5,54
   410cc:	e13ffc17 	ldw	r4,-16(fp)
   410d0:	0046c440 	call	46c44 <reg_write>
   410d4:	10000226 	beq	r2,zero,410e0 <adv7513_de_gen+0xb4>
			return -1;
   410d8:	00bfffc4 	movi	r2,-1
   410dc:	00005e06 	br	41258 <adv7513_de_gen+0x22c>

		// 0x37[7:5] <- ioff
		// 0x37[4:0] <- w[11:7]
		regv = ((ioff & 0x07) << 5) | ((w >> 7) & 0x1f);
   410e0:	e0800417 	ldw	r2,16(fp)
   410e4:	1004917a 	slli	r2,r2,5
   410e8:	10c03fcc 	andi	r3,r2,255
   410ec:	e0bfff17 	ldw	r2,-4(fp)
   410f0:	1005d1fa 	srai	r2,r2,7
   410f4:	108007cc 	andi	r2,r2,31
   410f8:	1884b03a 	or	r2,r3,r2
   410fc:	e0bffb15 	stw	r2,-20(fp)
		if (reg_write(ec, 0x37, regv) != 0)
   41100:	e1bffb17 	ldw	r6,-20(fp)
   41104:	01400dc4 	movi	r5,55
   41108:	e13ffc17 	ldw	r4,-16(fp)
   4110c:	0046c440 	call	46c44 <reg_write>
   41110:	10000226 	beq	r2,zero,4111c <adv7513_de_gen+0xf0>
			return -1;
   41114:	00bfffc4 	movi	r2,-1
   41118:	00004f06 	br	41258 <adv7513_de_gen+0x22c>

		// 0x38[7:1] <- w[6:0]
		regv = (w & 0x7f) << 1;
   4111c:	e0bfff17 	ldw	r2,-4(fp)
   41120:	1085883a 	add	r2,r2,r2
   41124:	10803fcc 	andi	r2,r2,255
   41128:	e0bffb15 	stw	r2,-20(fp)
		if (reg_update_bits(ec, 0x38, 0xfe, regv) != 0)
   4112c:	e1fffb17 	ldw	r7,-20(fp)
   41130:	01803f84 	movi	r6,254
   41134:	01400e04 	movi	r5,56
   41138:	e13ffc17 	ldw	r4,-16(fp)
   4113c:	0046ce40 	call	46ce4 <reg_update_bits>
   41140:	10000226 	beq	r2,zero,4114c <adv7513_de_gen+0x120>
			return -1;
   41144:	00bfffc4 	movi	r2,-1
   41148:	00004306 	br	41258 <adv7513_de_gen+0x22c>

		// 0x39[7:0] <- h[11:4]
		regv = (h >> 4);
   4114c:	e0800317 	ldw	r2,12(fp)
   41150:	1005d13a 	srai	r2,r2,4
   41154:	e0bffb15 	stw	r2,-20(fp)
		if (reg_write(ec, 0x39, regv) != 0)
   41158:	e1bffb17 	ldw	r6,-20(fp)
   4115c:	01400e44 	movi	r5,57
   41160:	e13ffc17 	ldw	r4,-16(fp)
   41164:	0046c440 	call	46c44 <reg_write>
   41168:	10000226 	beq	r2,zero,41174 <adv7513_de_gen+0x148>
			return -1;
   4116c:	00bfffc4 	movi	r2,-1
   41170:	00003906 	br	41258 <adv7513_de_gen+0x22c>

		// 0x3a[7:4] <- h[3:0]
		regv = (h & 0x0f) << 4;
   41174:	e0800317 	ldw	r2,12(fp)
   41178:	1004913a 	slli	r2,r2,4
   4117c:	10803fcc 	andi	r2,r2,255
   41180:	e0bffb15 	stw	r2,-20(fp)
		if (reg_update_bits(ec, 0x3a, 0xf0, regv) != 0)
   41184:	e1fffb17 	ldw	r7,-20(fp)
   41188:	01803c04 	movi	r6,240
   4118c:	01400e84 	movi	r5,58
   41190:	e13ffc17 	ldw	r4,-16(fp)
   41194:	0046ce40 	call	46ce4 <reg_update_bits>
   41198:	10000226 	beq	r2,zero,411a4 <adv7513_de_gen+0x178>
			return -1;
   4119c:	00bfffc4 	movi	r2,-1
   411a0:	00002d06 	br	41258 <adv7513_de_gen+0x22c>

		// 0xfb[7]   <- hb[10]
		// 0xfb[6:5] <- vb[7:6]
		// 0xfb[4]   <- w[12]
		// 0xfb[3]   <- h[12]
		regv = (((hb >> 10) << 7) & 0x80) | (((vb >> 6) << 5) & 0x60) |
   411a4:	e0bffe17 	ldw	r2,-8(fp)
   411a8:	1005d2ba 	srai	r2,r2,10
   411ac:	100491fa 	slli	r2,r2,7
   411b0:	10c03fcc 	andi	r3,r2,255
   411b4:	e0800217 	ldw	r2,8(fp)
   411b8:	1005d1ba 	srai	r2,r2,6
   411bc:	1004917a 	slli	r2,r2,5
   411c0:	1080180c 	andi	r2,r2,96
   411c4:	1886b03a 	or	r3,r3,r2
			   (((w >> 12) << 4) & 0x10) | (((h >> 12) << 3) & 0x08);
   411c8:	e0bfff17 	ldw	r2,-4(fp)
   411cc:	1005d33a 	srai	r2,r2,12
   411d0:	1004913a 	slli	r2,r2,4
   411d4:	1080040c 	andi	r2,r2,16

		// 0xfb[7]   <- hb[10]
		// 0xfb[6:5] <- vb[7:6]
		// 0xfb[4]   <- w[12]
		// 0xfb[3]   <- h[12]
		regv = (((hb >> 10) << 7) & 0x80) | (((vb >> 6) << 5) & 0x60) |
   411d8:	1886b03a 	or	r3,r3,r2
			   (((w >> 12) << 4) & 0x10) | (((h >> 12) << 3) & 0x08);
   411dc:	e0800317 	ldw	r2,12(fp)
   411e0:	1005d33a 	srai	r2,r2,12
   411e4:	100490fa 	slli	r2,r2,3
   411e8:	1080020c 	andi	r2,r2,8

		// 0xfb[7]   <- hb[10]
		// 0xfb[6:5] <- vb[7:6]
		// 0xfb[4]   <- w[12]
		// 0xfb[3]   <- h[12]
		regv = (((hb >> 10) << 7) & 0x80) | (((vb >> 6) << 5) & 0x60) |
   411ec:	1884b03a 	or	r2,r3,r2
   411f0:	e0bffb15 	stw	r2,-20(fp)
			   (((w >> 12) << 4) & 0x10) | (((h >> 12) << 3) & 0x08);
		if (reg_update_bits(ec, 0xfb, 0xf8, regv) != 0)
   411f4:	e1fffb17 	ldw	r7,-20(fp)
   411f8:	01803e04 	movi	r6,248
   411fc:	01403ec4 	movi	r5,251
   41200:	e13ffc17 	ldw	r4,-16(fp)
   41204:	0046ce40 	call	46ce4 <reg_update_bits>
   41208:	10000226 	beq	r2,zero,41214 <adv7513_de_gen+0x1e8>
			return -1;
   4120c:	00bfffc4 	movi	r2,-1
   41210:	00001106 	br	41258 <adv7513_de_gen+0x22c>

		// 0xd0[1] <- 1  h/v sync in -> adjust de -> adjust new h/v sync out
		//            0  de in -> adjust h/v sync -> adjust new de out
		if (reg_update_bits(ec, 0xd0, 0x02, 1 << 1) != 0)
   41214:	01c00084 	movi	r7,2
   41218:	01800084 	movi	r6,2
   4121c:	01403404 	movi	r5,208
   41220:	e13ffc17 	ldw	r4,-16(fp)
   41224:	0046ce40 	call	46ce4 <reg_update_bits>
   41228:	10000226 	beq	r2,zero,41234 <adv7513_de_gen+0x208>
			return -1;
   4122c:	00bfffc4 	movi	r2,-1
   41230:	00000906 	br	41258 <adv7513_de_gen+0x22c>

		// 0x17[6] <- vsync polarity 0)high 1)low
		// 0x17[5] <- hsync polarity 0)high 1)low
		// 0x17[0] <- de-gen enable
		if (reg_update_bits(ec, 0x17, 0x61, 0x61) != 0)
   41234:	01c01844 	movi	r7,97
   41238:	01801844 	movi	r6,97
   4123c:	014005c4 	movi	r5,23
   41240:	e13ffc17 	ldw	r4,-16(fp)
   41244:	0046ce40 	call	46ce4 <reg_update_bits>
   41248:	10000226 	beq	r2,zero,41254 <adv7513_de_gen+0x228>
			return -1;
   4124c:	00bfffc4 	movi	r2,-1
   41250:	00000106 	br	41258 <adv7513_de_gen+0x22c>
	}

	return 0;
   41254:	0005883a 	mov	r2,zero
}
   41258:	e037883a 	mov	sp,fp
   4125c:	dfc00117 	ldw	ra,4(sp)
   41260:	df000017 	ldw	fp,0(sp)
   41264:	dec00204 	addi	sp,sp,8
   41268:	f800283a 	ret

0004126c <adv7513_video_misc_config>:

static int adv7513_video_misc_config(struct hdmi_encoder *ec)
{
   4126c:	defffd04 	addi	sp,sp,-12
   41270:	dfc00215 	stw	ra,8(sp)
   41274:	df000115 	stw	fp,4(sp)
   41278:	df000104 	addi	fp,sp,4
   4127c:	e13fff15 	stw	r4,-4(fp)
	printf("adv7513_video_config()\n");
   41280:	010001b4 	movhi	r4,6
   41284:	21303104 	addi	r4,r4,-16188
   41288:	004d9c40 	call	4d9c4 <puts>

	// 0xe2[0] <- CEC power down 0)power_down 1)power_up
	if (reg_update_bits(ec, 0xe2, 0x01, 0) != 0)
   4128c:	000f883a 	mov	r7,zero
   41290:	01800044 	movi	r6,1
   41294:	01403884 	movi	r5,226
   41298:	e13fff17 	ldw	r4,-4(fp)
   4129c:	0046ce40 	call	46ce4 <reg_update_bits>
   412a0:	10000226 	beq	r2,zero,412ac <adv7513_video_misc_config+0x40>
		return -1;
   412a4:	00bfffc4 	movi	r2,-1
   412a8:	00006106 	br	41430 <adv7513_video_misc_config+0x1c4>

	// 0x48 <- 0x10
	if (reg_update_bits(ec, 0x48, 0xff, 0x10) != 0)
   412ac:	01c00404 	movi	r7,16
   412b0:	01803fc4 	movi	r6,255
   412b4:	01401204 	movi	r5,72
   412b8:	e13fff17 	ldw	r4,-4(fp)
   412bc:	0046ce40 	call	46ce4 <reg_update_bits>
   412c0:	10000226 	beq	r2,zero,412cc <adv7513_video_misc_config+0x60>
		return -1;
   412c4:	00bfffc4 	movi	r2,-1
   412c8:	00005906 	br	41430 <adv7513_video_misc_config+0x1c4>

	// 0x49 <- 0xa0
	if (reg_update_bits(ec, 0x49, 0xff, 0xa0) != 0)
   412cc:	01c02804 	movi	r7,160
   412d0:	01803fc4 	movi	r6,255
   412d4:	01401244 	movi	r5,73
   412d8:	e13fff17 	ldw	r4,-4(fp)
   412dc:	0046ce40 	call	46ce4 <reg_update_bits>
   412e0:	10000226 	beq	r2,zero,412ec <adv7513_video_misc_config+0x80>
		return -1;
   412e4:	00bfffc4 	movi	r2,-1
   412e8:	00005106 	br	41430 <adv7513_video_misc_config+0x1c4>

	// 0x55 <- 0x00
	if (reg_update_bits(ec, 0x55, 0xff, 0x00) != 0)
   412ec:	000f883a 	mov	r7,zero
   412f0:	01803fc4 	movi	r6,255
   412f4:	01401544 	movi	r5,85
   412f8:	e13fff17 	ldw	r4,-4(fp)
   412fc:	0046ce40 	call	46ce4 <reg_update_bits>
   41300:	10000226 	beq	r2,zero,4130c <adv7513_video_misc_config+0xa0>
		return -1;
   41304:	00bfffc4 	movi	r2,-1
   41308:	00004906 	br	41430 <adv7513_video_misc_config+0x1c4>

	// 0x56 <- 0x08
	if (reg_update_bits(ec, 0x56, 0xff, 0x08) != 0)
   4130c:	01c00204 	movi	r7,8
   41310:	01803fc4 	movi	r6,255
   41314:	01401584 	movi	r5,86
   41318:	e13fff17 	ldw	r4,-4(fp)
   4131c:	0046ce40 	call	46ce4 <reg_update_bits>
   41320:	10000226 	beq	r2,zero,4132c <adv7513_video_misc_config+0xc0>
		return -1;
   41324:	00bfffc4 	movi	r2,-1
   41328:	00004106 	br	41430 <adv7513_video_misc_config+0x1c4>

	// 0x99 <- 0x02
	if (reg_update_bits(ec, 0x99, 0xff, 0x02) != 0)
   4132c:	01c00084 	movi	r7,2
   41330:	01803fc4 	movi	r6,255
   41334:	01402644 	movi	r5,153
   41338:	e13fff17 	ldw	r4,-4(fp)
   4133c:	0046ce40 	call	46ce4 <reg_update_bits>
   41340:	10000226 	beq	r2,zero,4134c <adv7513_video_misc_config+0xe0>
		return -1;
   41344:	00bfffc4 	movi	r2,-1
   41348:	00003906 	br	41430 <adv7513_video_misc_config+0x1c4>

	// 0xa5 <- 0x04
	if (reg_update_bits(ec, 0xa5, 0xff, 0x04) != 0)
   4134c:	01c00104 	movi	r7,4
   41350:	01803fc4 	movi	r6,255
   41354:	01402944 	movi	r5,165
   41358:	e13fff17 	ldw	r4,-4(fp)
   4135c:	0046ce40 	call	46ce4 <reg_update_bits>
   41360:	10000226 	beq	r2,zero,4136c <adv7513_video_misc_config+0x100>
		return -1;
   41364:	00bfffc4 	movi	r2,-1
   41368:	00003106 	br	41430 <adv7513_video_misc_config+0x1c4>

	// 0xab <- 0x40
	if (reg_update_bits(ec, 0xab, 0xff, 0x40) != 0)
   4136c:	01c01004 	movi	r7,64
   41370:	01803fc4 	movi	r6,255
   41374:	01402ac4 	movi	r5,171
   41378:	e13fff17 	ldw	r4,-4(fp)
   4137c:	0046ce40 	call	46ce4 <reg_update_bits>
   41380:	10000226 	beq	r2,zero,4138c <adv7513_video_misc_config+0x120>
		return -1;
   41384:	00bfffc4 	movi	r2,-1
   41388:	00002906 	br	41430 <adv7513_video_misc_config+0x1c4>

	// 0xba <- 0x60
	if (reg_update_bits(ec, 0xba, 0xff, 0x60) != 0)
   4138c:	01c01804 	movi	r7,96
   41390:	01803fc4 	movi	r6,255
   41394:	01402e84 	movi	r5,186
   41398:	e13fff17 	ldw	r4,-4(fp)
   4139c:	0046ce40 	call	46ce4 <reg_update_bits>
   413a0:	10000226 	beq	r2,zero,413ac <adv7513_video_misc_config+0x140>
		return -1;
   413a4:	00bfffc4 	movi	r2,-1
   413a8:	00002106 	br	41430 <adv7513_video_misc_config+0x1c4>

	// 0xd1 <- 0xff
	if (reg_update_bits(ec, 0xd1, 0xff, 0xff) != 0)
   413ac:	01c03fc4 	movi	r7,255
   413b0:	01803fc4 	movi	r6,255
   413b4:	01403444 	movi	r5,209
   413b8:	e13fff17 	ldw	r4,-4(fp)
   413bc:	0046ce40 	call	46ce4 <reg_update_bits>
   413c0:	10000226 	beq	r2,zero,413cc <adv7513_video_misc_config+0x160>
		return -1;
   413c4:	00bfffc4 	movi	r2,-1
   413c8:	00001906 	br	41430 <adv7513_video_misc_config+0x1c4>

	// 0xde <- 0x10
	if (reg_update_bits(ec, 0xde, 0xff, 0xd8) != 0)
   413cc:	01c03604 	movi	r7,216
   413d0:	01803fc4 	movi	r6,255
   413d4:	01403784 	movi	r5,222
   413d8:	e13fff17 	ldw	r4,-4(fp)
   413dc:	0046ce40 	call	46ce4 <reg_update_bits>
   413e0:	10000226 	beq	r2,zero,413ec <adv7513_video_misc_config+0x180>
		return -1;
   413e4:	00bfffc4 	movi	r2,-1
   413e8:	00001106 	br	41430 <adv7513_video_misc_config+0x1c4>

	// 0xe4 <- 0x60
	if (reg_update_bits(ec, 0xe4, 0xff, 0x60) != 0)
   413ec:	01c01804 	movi	r7,96
   413f0:	01803fc4 	movi	r6,255
   413f4:	01403904 	movi	r5,228
   413f8:	e13fff17 	ldw	r4,-4(fp)
   413fc:	0046ce40 	call	46ce4 <reg_update_bits>
   41400:	10000226 	beq	r2,zero,4140c <adv7513_video_misc_config+0x1a0>
		return -1;
   41404:	00bfffc4 	movi	r2,-1
   41408:	00000906 	br	41430 <adv7513_video_misc_config+0x1c4>

	// 0xfa <- 0x7d
	if (reg_update_bits(ec, 0xfa, 0xff, 0x7d) != 0)
   4140c:	01c01f44 	movi	r7,125
   41410:	01803fc4 	movi	r6,255
   41414:	01403e84 	movi	r5,250
   41418:	e13fff17 	ldw	r4,-4(fp)
   4141c:	0046ce40 	call	46ce4 <reg_update_bits>
   41420:	10000226 	beq	r2,zero,4142c <adv7513_video_misc_config+0x1c0>
		return -1;
   41424:	00bfffc4 	movi	r2,-1
   41428:	00000106 	br	41430 <adv7513_video_misc_config+0x1c4>

	return 0;
   4142c:	0005883a 	mov	r2,zero
}
   41430:	e037883a 	mov	sp,fp
   41434:	dfc00117 	ldw	ra,4(sp)
   41438:	df000017 	ldw	fp,0(sp)
   4143c:	dec00204 	addi	sp,sp,8
   41440:	f800283a 	ret

00041444 <adv7513_video_init>:

int adv7513_video_init(struct hdmi_encoder *ec, int dvi)
{
   41444:	defffa04 	addi	sp,sp,-24
   41448:	dfc00515 	stw	ra,20(sp)
   4144c:	df000415 	stw	fp,16(sp)
   41450:	df000404 	addi	fp,sp,16
   41454:	e13ffe15 	stw	r4,-8(fp)
   41458:	e17fff15 	stw	r5,-4(fp)
	printf("adv7513_video_init()\n");
   4145c:	010001b4 	movhi	r4,6
   41460:	21303704 	addi	r4,r4,-16164
   41464:	004d9c40 	call	4d9c4 <puts>
	//	if (adv7513_video_misc_config(ec) != 0)
	//		return -1;
	//}

	// 0x15 0x16 0x17
	if (adv7513_video_in_format(ec, ADV7513_INPUT_ID_24BIT_RGB444_YCBCR444, ADV7513_INPUT_COLOR_DEPTH_8BIT, ADV7513_INPUT_COLOR_SPACE_RGB, ADV7513_INPUT_ASPECT_4V3, ADV7513_INPUT_INVALID) != 0)
   41468:	d8000115 	stw	zero,4(sp)
   4146c:	d8000015 	stw	zero,0(sp)
   41470:	000f883a 	mov	r7,zero
   41474:	018000c4 	movi	r6,3
   41478:	000b883a 	mov	r5,zero
   4147c:	e13ffe17 	ldw	r4,-8(fp)
   41480:	00407e00 	call	407e0 <adv7513_video_in_format>
   41484:	10000226 	beq	r2,zero,41490 <adv7513_video_init+0x4c>
		return -1;
   41488:	00bfffc4 	movi	r2,-1
   4148c:	00001606 	br	414e8 <adv7513_video_init+0xa4>

	// 0x16 0x18 0xaf 0x40 0x4c 0x3c
	if (dvi != 0) {
   41490:	e0bfff17 	ldw	r2,-4(fp)
   41494:	10000726 	beq	r2,zero,414b4 <adv7513_video_init+0x70>
		if (adv7513_video_out_format(ec, ADV7513_OUTPUT_444, ADV7513_MODE_DVI) != 0)
   41498:	000d883a 	mov	r6,zero
   4149c:	000b883a 	mov	r5,zero
   414a0:	e13ffe17 	ldw	r4,-8(fp)
   414a4:	0040d500 	call	40d50 <adv7513_video_out_format>
   414a8:	10000926 	beq	r2,zero,414d0 <adv7513_video_init+0x8c>
			return -1;
   414ac:	00bfffc4 	movi	r2,-1
   414b0:	00000d06 	br	414e8 <adv7513_video_init+0xa4>
	} else {
		if (adv7513_video_out_format(ec, ADV7513_OUTPUT_444, ADV7513_MODE_HDMI) != 0)
   414b4:	01800044 	movi	r6,1
   414b8:	000b883a 	mov	r5,zero
   414bc:	e13ffe17 	ldw	r4,-8(fp)
   414c0:	0040d500 	call	40d50 <adv7513_video_out_format>
   414c4:	10000226 	beq	r2,zero,414d0 <adv7513_video_init+0x8c>
			return -1;
   414c8:	00bfffc4 	movi	r2,-1
   414cc:	00000606 	br	414e8 <adv7513_video_init+0xa4>
	//	return -1;

	//if (adv7513_de_gen(ec, 0, 40 + 48 + 40, 640, 13 + 3 + 29, 480, 0) != 0)
	//	return -1;

	if (adv7513_avi_infoframe(ec) != 0)
   414d0:	e13ffe17 	ldw	r4,-8(fp)
   414d4:	00409380 	call	40938 <adv7513_avi_infoframe>
   414d8:	10000226 	beq	r2,zero,414e4 <adv7513_video_init+0xa0>
		return -1;
   414dc:	00bfffc4 	movi	r2,-1
   414e0:	00000106 	br	414e8 <adv7513_video_init+0xa4>

	return 0;
   414e4:	0005883a 	mov	r2,zero
}
   414e8:	e037883a 	mov	sp,fp
   414ec:	dfc00117 	ldw	ra,4(sp)
   414f0:	df000017 	ldw	fp,0(sp)
   414f4:	dec00204 	addi	sp,sp,8
   414f8:	f800283a 	ret

000414fc <adv7513_audio_init>:

int adv7513_audio_init(struct hdmi_encoder *ec)
{
   414fc:	defffd04 	addi	sp,sp,-12
   41500:	dfc00215 	stw	ra,8(sp)
   41504:	df000115 	stw	fp,4(sp)
   41508:	df000104 	addi	fp,sp,4
   4150c:	e13fff15 	stw	r4,-4(fp)
	printf("adv7513_audio_init()\n");
   41510:	010001b4 	movhi	r4,6
   41514:	21303d04 	addi	r4,r4,-16140
   41518:	004d9c40 	call	4d9c4 <puts>
	//regv = (((hb >> 10) << 7) & 0x80) | (((vb >> 6) << 5) & 0x60) |
	//	   (((w >> 12) << 4) & 0x10) | (((h >> 12) << 3) & 0x08);
	//if (reg_update_bits(ec, 0xfb, 0xf8, regv) != 0)
	//	return -1;

	if (reg_update_bits(ec, 0x01, 0xff, 0x00) != 0)
   4151c:	000f883a 	mov	r7,zero
   41520:	01803fc4 	movi	r6,255
   41524:	01400044 	movi	r5,1
   41528:	e13fff17 	ldw	r4,-4(fp)
   4152c:	0046ce40 	call	46ce4 <reg_update_bits>
   41530:	10000226 	beq	r2,zero,4153c <adv7513_audio_init+0x40>
		return -1;
   41534:	00bfffc4 	movi	r2,-1
   41538:	00001106 	br	41580 <adv7513_audio_init+0x84>

	if (reg_update_bits(ec, 0x02, 0xff, 0x18) != 0)
   4153c:	01c00604 	movi	r7,24
   41540:	01803fc4 	movi	r6,255
   41544:	01400084 	movi	r5,2
   41548:	e13fff17 	ldw	r4,-4(fp)
   4154c:	0046ce40 	call	46ce4 <reg_update_bits>
   41550:	10000226 	beq	r2,zero,4155c <adv7513_audio_init+0x60>
		return -1;
   41554:	00bfffc4 	movi	r2,-1
   41558:	00000906 	br	41580 <adv7513_audio_init+0x84>

	if (reg_update_bits(ec, 0x03, 0xff, 0x00) != 0)
   4155c:	000f883a 	mov	r7,zero
   41560:	01803fc4 	movi	r6,255
   41564:	014000c4 	movi	r5,3
   41568:	e13fff17 	ldw	r4,-4(fp)
   4156c:	0046ce40 	call	46ce4 <reg_update_bits>
   41570:	10000226 	beq	r2,zero,4157c <adv7513_audio_init+0x80>
		return -1;
   41574:	00bfffc4 	movi	r2,-1
   41578:	00000106 	br	41580 <adv7513_audio_init+0x84>

	return 0;
   4157c:	0005883a 	mov	r2,zero
}
   41580:	e037883a 	mov	sp,fp
   41584:	dfc00117 	ldw	ra,4(sp)
   41588:	df000017 	ldw	fp,0(sp)
   4158c:	dec00204 	addi	sp,sp,8
   41590:	f800283a 	ret

00041594 <adv7513_chip_init>:

int adv7513_chip_init(struct hdmi_encoder *ec, int dvi)
{
   41594:	defffc04 	addi	sp,sp,-16
   41598:	dfc00315 	stw	ra,12(sp)
   4159c:	df000215 	stw	fp,8(sp)
   415a0:	df000204 	addi	fp,sp,8
   415a4:	e13ffe15 	stw	r4,-8(fp)
   415a8:	e17fff15 	stw	r5,-4(fp)
	if (adv7513_video_init(ec, dvi) != 0)
   415ac:	e17fff17 	ldw	r5,-4(fp)
   415b0:	e13ffe17 	ldw	r4,-8(fp)
   415b4:	00414440 	call	41444 <adv7513_video_init>
   415b8:	10000226 	beq	r2,zero,415c4 <adv7513_chip_init+0x30>
		return -1;
   415bc:	00bfffc4 	movi	r2,-1
   415c0:	00000106 	br	415c8 <adv7513_chip_init+0x34>

	//if (adv7513_audio_init(ec) != 0)
	//	return -1;

	return 0;
   415c4:	0005883a 	mov	r2,zero
}
   415c8:	e037883a 	mov	sp,fp
   415cc:	dfc00117 	ldw	ra,4(sp)
   415d0:	df000017 	ldw	fp,0(sp)
   415d4:	dec00204 	addi	sp,sp,8
   415d8:	f800283a 	ret

000415dc <eb_establish_timing>:
	int interlaced;
	int rb;			// reduced blanking
};

void eb_establish_timing(struct eb_established_timing *et, int x, int y, int r, int valid)
{
   415dc:	defffb04 	addi	sp,sp,-20
   415e0:	df000415 	stw	fp,16(sp)
   415e4:	df000404 	addi	fp,sp,16
   415e8:	e13ffc15 	stw	r4,-16(fp)
   415ec:	e17ffd15 	stw	r5,-12(fp)
   415f0:	e1bffe15 	stw	r6,-8(fp)
   415f4:	e1ffff15 	stw	r7,-4(fp)
	if (valid) {
   415f8:	e0800117 	ldw	r2,4(fp)
   415fc:	10001126 	beq	r2,zero,41644 <eb_establish_timing+0x68>
		et->valid = 1;
   41600:	e0bffc17 	ldw	r2,-16(fp)
   41604:	00c00044 	movi	r3,1
   41608:	10c00015 	stw	r3,0(r2)
		et->width = x;
   4160c:	e0bffc17 	ldw	r2,-16(fp)
   41610:	e0fffd17 	ldw	r3,-12(fp)
   41614:	10c00115 	stw	r3,4(r2)
		et->height = y;
   41618:	e0bffc17 	ldw	r2,-16(fp)
   4161c:	e0fffe17 	ldw	r3,-8(fp)
   41620:	10c00215 	stw	r3,8(r2)
		et->refresh = r;
   41624:	e0bffc17 	ldw	r2,-16(fp)
   41628:	e0ffff17 	ldw	r3,-4(fp)
   4162c:	10c00315 	stw	r3,12(r2)
		et->interlaced = 0;
   41630:	e0bffc17 	ldw	r2,-16(fp)
   41634:	10000415 	stw	zero,16(r2)
		et->rb = 0;
   41638:	e0bffc17 	ldw	r2,-16(fp)
   4163c:	10000515 	stw	zero,20(r2)
		et->height = 0;
		et->refresh = 0;
		et->interlaced = 0;
		et->rb = 0;
	}
}
   41640:	00000c06 	br	41674 <eb_establish_timing+0x98>
		et->height = y;
		et->refresh = r;
		et->interlaced = 0;
		et->rb = 0;
	} else {
		et->valid = 0;
   41644:	e0bffc17 	ldw	r2,-16(fp)
   41648:	10000015 	stw	zero,0(r2)
		et->width = 0;
   4164c:	e0bffc17 	ldw	r2,-16(fp)
   41650:	10000115 	stw	zero,4(r2)
		et->height = 0;
   41654:	e0bffc17 	ldw	r2,-16(fp)
   41658:	10000215 	stw	zero,8(r2)
		et->refresh = 0;
   4165c:	e0bffc17 	ldw	r2,-16(fp)
   41660:	10000315 	stw	zero,12(r2)
		et->interlaced = 0;
   41664:	e0bffc17 	ldw	r2,-16(fp)
   41668:	10000415 	stw	zero,16(r2)
		et->rb = 0;
   4166c:	e0bffc17 	ldw	r2,-16(fp)
   41670:	10000515 	stw	zero,20(r2)
	}
}
   41674:	0001883a 	nop
   41678:	e037883a 	mov	sp,fp
   4167c:	df000017 	ldw	fp,0(sp)
   41680:	dec00104 	addi	sp,sp,4
   41684:	f800283a 	ret

00041688 <eb_establish_timing_i>:

void eb_establish_timing_i(struct eb_established_timing *et, int x, int y, int r, int valid)
{
   41688:	defffb04 	addi	sp,sp,-20
   4168c:	df000415 	stw	fp,16(sp)
   41690:	df000404 	addi	fp,sp,16
   41694:	e13ffc15 	stw	r4,-16(fp)
   41698:	e17ffd15 	stw	r5,-12(fp)
   4169c:	e1bffe15 	stw	r6,-8(fp)
   416a0:	e1ffff15 	stw	r7,-4(fp)
	if (valid) {
   416a4:	e0800117 	ldw	r2,4(fp)
   416a8:	10001226 	beq	r2,zero,416f4 <eb_establish_timing_i+0x6c>
		et->valid = 1;
   416ac:	e0bffc17 	ldw	r2,-16(fp)
   416b0:	00c00044 	movi	r3,1
   416b4:	10c00015 	stw	r3,0(r2)
		et->width = x;
   416b8:	e0bffc17 	ldw	r2,-16(fp)
   416bc:	e0fffd17 	ldw	r3,-12(fp)
   416c0:	10c00115 	stw	r3,4(r2)
		et->height = y;
   416c4:	e0bffc17 	ldw	r2,-16(fp)
   416c8:	e0fffe17 	ldw	r3,-8(fp)
   416cc:	10c00215 	stw	r3,8(r2)
		et->refresh = r;
   416d0:	e0bffc17 	ldw	r2,-16(fp)
   416d4:	e0ffff17 	ldw	r3,-4(fp)
   416d8:	10c00315 	stw	r3,12(r2)
		et->interlaced = 1;
   416dc:	e0bffc17 	ldw	r2,-16(fp)
   416e0:	00c00044 	movi	r3,1
   416e4:	10c00415 	stw	r3,16(r2)
		et->rb = 0;
   416e8:	e0bffc17 	ldw	r2,-16(fp)
   416ec:	10000515 	stw	zero,20(r2)
		et->height = 0;
		et->refresh = 0;
		et->interlaced = 0;
		et->rb = 0;
	}
}
   416f0:	00000c06 	br	41724 <eb_establish_timing_i+0x9c>
		et->height = y;
		et->refresh = r;
		et->interlaced = 1;
		et->rb = 0;
	} else {
		et->valid = 0;
   416f4:	e0bffc17 	ldw	r2,-16(fp)
   416f8:	10000015 	stw	zero,0(r2)
		et->width = 0;
   416fc:	e0bffc17 	ldw	r2,-16(fp)
   41700:	10000115 	stw	zero,4(r2)
		et->height = 0;
   41704:	e0bffc17 	ldw	r2,-16(fp)
   41708:	10000215 	stw	zero,8(r2)
		et->refresh = 0;
   4170c:	e0bffc17 	ldw	r2,-16(fp)
   41710:	10000315 	stw	zero,12(r2)
		et->interlaced = 0;
   41714:	e0bffc17 	ldw	r2,-16(fp)
   41718:	10000415 	stw	zero,16(r2)
		et->rb = 0;
   4171c:	e0bffc17 	ldw	r2,-16(fp)
   41720:	10000515 	stw	zero,20(r2)
	}
}
   41724:	0001883a 	nop
   41728:	e037883a 	mov	sp,fp
   4172c:	df000017 	ldw	fp,0(sp)
   41730:	dec00104 	addi	sp,sp,4
   41734:	f800283a 	ret

00041738 <eb_establish_timing_rb>:

void eb_establish_timing_rb(struct eb_established_timing *et, int x, int y, int r, int valid)
{
   41738:	defffb04 	addi	sp,sp,-20
   4173c:	df000415 	stw	fp,16(sp)
   41740:	df000404 	addi	fp,sp,16
   41744:	e13ffc15 	stw	r4,-16(fp)
   41748:	e17ffd15 	stw	r5,-12(fp)
   4174c:	e1bffe15 	stw	r6,-8(fp)
   41750:	e1ffff15 	stw	r7,-4(fp)
	if (valid) {
   41754:	e0800117 	ldw	r2,4(fp)
   41758:	10001226 	beq	r2,zero,417a4 <eb_establish_timing_rb+0x6c>
		et->valid = 1;
   4175c:	e0bffc17 	ldw	r2,-16(fp)
   41760:	00c00044 	movi	r3,1
   41764:	10c00015 	stw	r3,0(r2)
		et->width = x;
   41768:	e0bffc17 	ldw	r2,-16(fp)
   4176c:	e0fffd17 	ldw	r3,-12(fp)
   41770:	10c00115 	stw	r3,4(r2)
		et->height = y;
   41774:	e0bffc17 	ldw	r2,-16(fp)
   41778:	e0fffe17 	ldw	r3,-8(fp)
   4177c:	10c00215 	stw	r3,8(r2)
		et->refresh = r;
   41780:	e0bffc17 	ldw	r2,-16(fp)
   41784:	e0ffff17 	ldw	r3,-4(fp)
   41788:	10c00315 	stw	r3,12(r2)
		et->interlaced = 0;
   4178c:	e0bffc17 	ldw	r2,-16(fp)
   41790:	10000415 	stw	zero,16(r2)
		et->rb = 1;
   41794:	e0bffc17 	ldw	r2,-16(fp)
   41798:	00c00044 	movi	r3,1
   4179c:	10c00515 	stw	r3,20(r2)
		et->height = 0;
		et->refresh = 0;
		et->interlaced = 0;
		et->rb = 0;
	}
}
   417a0:	00000c06 	br	417d4 <eb_establish_timing_rb+0x9c>
		et->height = y;
		et->refresh = r;
		et->interlaced = 0;
		et->rb = 1;
	} else {
		et->valid = 0;
   417a4:	e0bffc17 	ldw	r2,-16(fp)
   417a8:	10000015 	stw	zero,0(r2)
		et->width = 0;
   417ac:	e0bffc17 	ldw	r2,-16(fp)
   417b0:	10000115 	stw	zero,4(r2)
		et->height = 0;
   417b4:	e0bffc17 	ldw	r2,-16(fp)
   417b8:	10000215 	stw	zero,8(r2)
		et->refresh = 0;
   417bc:	e0bffc17 	ldw	r2,-16(fp)
   417c0:	10000315 	stw	zero,12(r2)
		et->interlaced = 0;
   417c4:	e0bffc17 	ldw	r2,-16(fp)
   417c8:	10000415 	stw	zero,16(r2)
		et->rb = 0;
   417cc:	e0bffc17 	ldw	r2,-16(fp)
   417d0:	10000515 	stw	zero,20(r2)
	}
}
   417d4:	0001883a 	nop
   417d8:	e037883a 	mov	sp,fp
   417dc:	df000017 	ldw	fp,0(sp)
   417e0:	dec00104 	addi	sp,sp,4
   417e4:	f800283a 	ret

000417e8 <edid_decode_cea>:
}
#endif


int edid_decode_cea(struct base_edid *edid, const unsigned char *edid_bin, int ext_idx)
{
   417e8:	defff404 	addi	sp,sp,-48
   417ec:	dfc00b15 	stw	ra,44(sp)
   417f0:	df000a15 	stw	fp,40(sp)
   417f4:	df000a04 	addi	fp,sp,40
   417f8:	e13ffd15 	stw	r4,-12(fp)
   417fc:	e17ffe15 	stw	r5,-8(fp)
   41800:	e1bfff15 	stw	r6,-4(fp)
	u8 *ext_bin = &edid_bin[128 * (ext_idx + 1)];
   41804:	e0bfff17 	ldw	r2,-4(fp)
   41808:	10800044 	addi	r2,r2,1
   4180c:	100491fa 	slli	r2,r2,7
   41810:	1007883a 	mov	r3,r2
   41814:	e0bffe17 	ldw	r2,-8(fp)
   41818:	10c5883a 	add	r2,r2,r3
   4181c:	e0bff915 	stw	r2,-28(fp)
	u8 *c, *dtd = 0;
   41820:	e03ff715 	stw	zero,-36(fp)
	int i;

	struct ext_data *ext_data = &edid->ext_data[ext_idx];
   41824:	e0bfff17 	ldw	r2,-4(fp)
   41828:	10811024 	muli	r2,r2,1088
   4182c:	10860a04 	addi	r2,r2,6184
   41830:	e0fffd17 	ldw	r3,-12(fp)
   41834:	1885883a 	add	r2,r3,r2
   41838:	e0bffa15 	stw	r2,-24(fp)
	struct edid_cea *cea = &ext_data->cea_ext;
   4183c:	e0bffa17 	ldw	r2,-24(fp)
   41840:	e0bffb15 	stw	r2,-20(fp)

	c = &ext_bin[1];
   41844:	e0bff917 	ldw	r2,-28(fp)
   41848:	10800044 	addi	r2,r2,1
   4184c:	e0bff615 	stw	r2,-40(fp)

	// version
	if (*c != 0x03)
   41850:	e0bff617 	ldw	r2,-40(fp)
   41854:	10800003 	ldbu	r2,0(r2)
   41858:	10803fcc 	andi	r2,r2,255
   4185c:	108000e0 	cmpeqi	r2,r2,3
   41860:	1000021e 	bne	r2,zero,4186c <edid_decode_cea+0x84>
		return -1;	// todo: support v1 / v2
   41864:	00bfffc4 	movi	r2,-1
   41868:	00045006 	br	429ac <edid_decode_cea+0x11c4>

	cea->rev = *c;
   4186c:	e0bff617 	ldw	r2,-40(fp)
   41870:	10800003 	ldbu	r2,0(r2)
   41874:	10c03fcc 	andi	r3,r2,255
   41878:	e0bffb17 	ldw	r2,-20(fp)
   4187c:	10c00015 	stw	r3,0(r2)

	// obtain offset to detail timing descriptor
	c = &ext_bin[2];
   41880:	e0bff917 	ldw	r2,-28(fp)
   41884:	10800084 	addi	r2,r2,2
   41888:	e0bff615 	stw	r2,-40(fp)
	if (*c > 4)
   4188c:	e0bff617 	ldw	r2,-40(fp)
   41890:	10800003 	ldbu	r2,0(r2)
   41894:	10803fcc 	andi	r2,r2,255
   41898:	10800170 	cmpltui	r2,r2,5
   4189c:	1000061e 	bne	r2,zero,418b8 <edid_decode_cea+0xd0>
		dtd = &ext_bin[*c];
   418a0:	e0bff617 	ldw	r2,-40(fp)
   418a4:	10800003 	ldbu	r2,0(r2)
   418a8:	10803fcc 	andi	r2,r2,255
   418ac:	e0fff917 	ldw	r3,-28(fp)
   418b0:	1885883a 	add	r2,r3,r2
   418b4:	e0bff715 	stw	r2,-36(fp)

	cea->nr_dtd = c[1];
   418b8:	e0bff617 	ldw	r2,-40(fp)
   418bc:	10800044 	addi	r2,r2,1
   418c0:	10800003 	ldbu	r2,0(r2)
   418c4:	10c03fcc 	andi	r3,r2,255
   418c8:	e0bffb17 	ldw	r2,-20(fp)
   418cc:	10c00515 	stw	r3,20(r2)

	// data block collection
	c = &ext_bin[4];
   418d0:	e0bff917 	ldw	r2,-28(fp)
   418d4:	10800104 	addi	r2,r2,4
   418d8:	e0bff615 	stw	r2,-40(fp)

	while (c < dtd) {
   418dc:	00020706 	br	420fc <edid_decode_cea+0x914>
		switch (*c >> 5) {
   418e0:	e0bff617 	ldw	r2,-40(fp)
   418e4:	10800003 	ldbu	r2,0(r2)
   418e8:	10803fcc 	andi	r2,r2,255
   418ec:	1004d17a 	srli	r2,r2,5
   418f0:	10803fcc 	andi	r2,r2,255
   418f4:	10c00228 	cmpgeui	r3,r2,8
   418f8:	1801fd1e 	bne	r3,zero,420f0 <edid_decode_cea+0x908>
   418fc:	100690ba 	slli	r3,r2,2
   41900:	00800134 	movhi	r2,4
   41904:	10864504 	addi	r2,r2,6420
   41908:	1885883a 	add	r2,r3,r2
   4190c:	10800017 	ldw	r2,0(r2)
   41910:	1000683a 	jmp	r2
   41914:	000420f0 	cmpltui	zero,zero,4227
   41918:	00041934 	movhi	zero,4196
   4191c:	00041b0c 	andi	zero,zero,4204
   41920:	00041be0 	cmpeqi	zero,zero,4207
   41924:	00041f24 	muli	zero,zero,4220
   41928:	00041f64 	muli	zero,zero,4221
   4192c:	000420f0 	cmpltui	zero,zero,4227
   41930:	00041f88 	cmpgei	zero,zero,4222
		case CEA_DB_AUDIO:
			cea->db_audio.nr_sad = (int)(*c & 0x1f) / 3;
   41934:	e0bff617 	ldw	r2,-40(fp)
   41938:	10800003 	ldbu	r2,0(r2)
   4193c:	10803fcc 	andi	r2,r2,255
   41940:	108007cc 	andi	r2,r2,31
   41944:	014000c4 	movi	r5,3
   41948:	1009883a 	mov	r4,r2
   4194c:	004b1240 	call	4b124 <__divsi3>
   41950:	1007883a 	mov	r3,r2
   41954:	e0bffb17 	ldw	r2,-20(fp)
   41958:	10c04715 	stw	r3,284(r2)
			for (i = 0; i < cea->db_audio.nr_sad; ++i) {
   4195c:	e03ff815 	stw	zero,-32(fp)
   41960:	00005d06 	br	41ad8 <edid_decode_cea+0x2f0>
				u8 *sad_bin = &c[1+3*i];
   41964:	e0fff817 	ldw	r3,-32(fp)
   41968:	1805883a 	mov	r2,r3
   4196c:	1085883a 	add	r2,r2,r2
   41970:	10c5883a 	add	r2,r2,r3
   41974:	10800044 	addi	r2,r2,1
   41978:	1007883a 	mov	r3,r2
   4197c:	e0bff617 	ldw	r2,-40(fp)
   41980:	10c5883a 	add	r2,r2,r3
   41984:	e0bffc15 	stw	r2,-16(fp)
				cea->db_audio.sad[i].format = (int)((*sad_bin >> 3) & 0xf);
   41988:	e0bffc17 	ldw	r2,-16(fp)
   4198c:	10800003 	ldbu	r2,0(r2)
   41990:	10803fcc 	andi	r2,r2,255
   41994:	1004d0fa 	srli	r2,r2,3
   41998:	10803fcc 	andi	r2,r2,255
   4199c:	10c003cc 	andi	r3,r2,15
   419a0:	e13ffb17 	ldw	r4,-20(fp)
   419a4:	e0bff817 	ldw	r2,-32(fp)
   419a8:	10800524 	muli	r2,r2,20
   419ac:	2085883a 	add	r2,r4,r2
   419b0:	10804804 	addi	r2,r2,288
   419b4:	10c00015 	stw	r3,0(r2)
				cea->db_audio.sad[i].channels = (int)(*sad_bin & 0x7) + 1;
   419b8:	e0bffc17 	ldw	r2,-16(fp)
   419bc:	10800003 	ldbu	r2,0(r2)
   419c0:	10803fcc 	andi	r2,r2,255
   419c4:	108001cc 	andi	r2,r2,7
   419c8:	10c00044 	addi	r3,r2,1
   419cc:	e13ffb17 	ldw	r4,-20(fp)
   419d0:	e0bff817 	ldw	r2,-32(fp)
   419d4:	10800524 	muli	r2,r2,20
   419d8:	2085883a 	add	r2,r4,r2
   419dc:	10804904 	addi	r2,r2,292
   419e0:	10c00015 	stw	r3,0(r2)
				cea->db_audio.sad[i].freq = (int)(sad_bin[1] & 0x7f);
   419e4:	e0bffc17 	ldw	r2,-16(fp)
   419e8:	10800044 	addi	r2,r2,1
   419ec:	10800003 	ldbu	r2,0(r2)
   419f0:	10803fcc 	andi	r2,r2,255
   419f4:	10c01fcc 	andi	r3,r2,127
   419f8:	e13ffb17 	ldw	r4,-20(fp)
   419fc:	e0bff817 	ldw	r2,-32(fp)
   41a00:	10800524 	muli	r2,r2,20
   41a04:	2085883a 	add	r2,r4,r2
   41a08:	10804a04 	addi	r2,r2,296
   41a0c:	10c00015 	stw	r3,0(r2)

				if (cea->db_audio.sad[i].format == CEA_SAD_FMT_LPCM) {
   41a10:	e0fffb17 	ldw	r3,-20(fp)
   41a14:	e0bff817 	ldw	r2,-32(fp)
   41a18:	10800524 	muli	r2,r2,20
   41a1c:	1885883a 	add	r2,r3,r2
   41a20:	10804804 	addi	r2,r2,288
   41a24:	10800017 	ldw	r2,0(r2)
   41a28:	10800058 	cmpnei	r2,r2,1
   41a2c:	10000c1e 	bne	r2,zero,41a60 <edid_decode_cea+0x278>
					cea->db_audio.sad[i].resolution = (int)(sad_bin[2] & 0x07);
   41a30:	e0bffc17 	ldw	r2,-16(fp)
   41a34:	10800084 	addi	r2,r2,2
   41a38:	10800003 	ldbu	r2,0(r2)
   41a3c:	10803fcc 	andi	r2,r2,255
   41a40:	10c001cc 	andi	r3,r2,7
   41a44:	e13ffb17 	ldw	r4,-20(fp)
   41a48:	e0bff817 	ldw	r2,-32(fp)
   41a4c:	10800524 	muli	r2,r2,20
   41a50:	2085883a 	add	r2,r4,r2
   41a54:	10804b04 	addi	r2,r2,300
   41a58:	10c00015 	stw	r3,0(r2)
   41a5c:	00001b06 	br	41acc <edid_decode_cea+0x2e4>
				} else if (cea->db_audio.sad[i].format != 0) {
   41a60:	e0fffb17 	ldw	r3,-20(fp)
   41a64:	e0bff817 	ldw	r2,-32(fp)
   41a68:	10800524 	muli	r2,r2,20
   41a6c:	1885883a 	add	r2,r3,r2
   41a70:	10804804 	addi	r2,r2,288
   41a74:	10800017 	ldw	r2,0(r2)
   41a78:	10001426 	beq	r2,zero,41acc <edid_decode_cea+0x2e4>
					if (cea->db_audio.sad[i].format <= CEA_SAD_FMT_ATRAC) {
   41a7c:	e0fffb17 	ldw	r3,-20(fp)
   41a80:	e0bff817 	ldw	r2,-32(fp)
   41a84:	10800524 	muli	r2,r2,20
   41a88:	1885883a 	add	r2,r3,r2
   41a8c:	10804804 	addi	r2,r2,288
   41a90:	10800017 	ldw	r2,0(r2)
   41a94:	10800248 	cmpgei	r2,r2,9
   41a98:	10000c1e 	bne	r2,zero,41acc <edid_decode_cea+0x2e4>
						cea->db_audio.sad[i].bitrate = (int)sad_bin[2] * 8;
   41a9c:	e0bffc17 	ldw	r2,-16(fp)
   41aa0:	10800084 	addi	r2,r2,2
   41aa4:	10800003 	ldbu	r2,0(r2)
   41aa8:	10803fcc 	andi	r2,r2,255
   41aac:	100690fa 	slli	r3,r2,3
   41ab0:	e13ffb17 	ldw	r4,-20(fp)
   41ab4:	e0bff817 	ldw	r2,-32(fp)
   41ab8:	10800044 	addi	r2,r2,1
   41abc:	10800524 	muli	r2,r2,20
   41ac0:	2085883a 	add	r2,r4,r2
   41ac4:	10804704 	addi	r2,r2,284
   41ac8:	10c00015 	stw	r3,0(r2)

	while (c < dtd) {
		switch (*c >> 5) {
		case CEA_DB_AUDIO:
			cea->db_audio.nr_sad = (int)(*c & 0x1f) / 3;
			for (i = 0; i < cea->db_audio.nr_sad; ++i) {
   41acc:	e0bff817 	ldw	r2,-32(fp)
   41ad0:	10800044 	addi	r2,r2,1
   41ad4:	e0bff815 	stw	r2,-32(fp)
   41ad8:	e0bffb17 	ldw	r2,-20(fp)
   41adc:	10804717 	ldw	r2,284(r2)
   41ae0:	e0fff817 	ldw	r3,-32(fp)
   41ae4:	18bf9f16 	blt	r3,r2,41964 <__alt_data_end+0xfffd5a44>
					if (cea->db_audio.sad[i].format <= CEA_SAD_FMT_ATRAC) {
						cea->db_audio.sad[i].bitrate = (int)sad_bin[2] * 8;
					}
				}
			}
			c += (*c & 0x1f) + 1;
   41ae8:	e0bff617 	ldw	r2,-40(fp)
   41aec:	10800003 	ldbu	r2,0(r2)
   41af0:	10803fcc 	andi	r2,r2,255
   41af4:	108007cc 	andi	r2,r2,31
   41af8:	10800044 	addi	r2,r2,1
   41afc:	e0fff617 	ldw	r3,-40(fp)
   41b00:	1885883a 	add	r2,r3,r2
   41b04:	e0bff615 	stw	r2,-40(fp)
			break;
   41b08:	00017c06 	br	420fc <edid_decode_cea+0x914>

		case CEA_DB_VIDEO:
			cea->db_video.nr_svd = (int)(*c & 0x1f);
   41b0c:	e0bff617 	ldw	r2,-40(fp)
   41b10:	10800003 	ldbu	r2,0(r2)
   41b14:	10803fcc 	andi	r2,r2,255
   41b18:	10c007cc 	andi	r3,r2,31
   41b1c:	e0bffb17 	ldw	r2,-20(fp)
   41b20:	10c00615 	stw	r3,24(r2)
			for (i = 0; i < cea->db_video.nr_svd; ++i) {
   41b24:	e03ff815 	stw	zero,-32(fp)
   41b28:	00002006 	br	41bac <edid_decode_cea+0x3c4>
				cea->db_video.svd[i].native = c[1 + i] & 0x80 ? 1 : 0;
   41b2c:	e0bff817 	ldw	r2,-32(fp)
   41b30:	10800044 	addi	r2,r2,1
   41b34:	1007883a 	mov	r3,r2
   41b38:	e0bff617 	ldw	r2,-40(fp)
   41b3c:	10c5883a 	add	r2,r2,r3
   41b40:	10800003 	ldbu	r2,0(r2)
   41b44:	10803fcc 	andi	r2,r2,255
   41b48:	1004d1fa 	srli	r2,r2,7
   41b4c:	10c03fcc 	andi	r3,r2,255
   41b50:	e13ffb17 	ldw	r4,-20(fp)
   41b54:	e0bff817 	ldw	r2,-32(fp)
   41b58:	100490fa 	slli	r2,r2,3
   41b5c:	2085883a 	add	r2,r4,r2
   41b60:	10800704 	addi	r2,r2,28
   41b64:	10c00015 	stw	r3,0(r2)
				cea->db_video.svd[i].vic = (int)(c[1 + i] & 0x7f);
   41b68:	e0bff817 	ldw	r2,-32(fp)
   41b6c:	10800044 	addi	r2,r2,1
   41b70:	1007883a 	mov	r3,r2
   41b74:	e0bff617 	ldw	r2,-40(fp)
   41b78:	10c5883a 	add	r2,r2,r3
   41b7c:	10800003 	ldbu	r2,0(r2)
   41b80:	10803fcc 	andi	r2,r2,255
   41b84:	10c01fcc 	andi	r3,r2,127
   41b88:	e13ffb17 	ldw	r4,-20(fp)
   41b8c:	e0bff817 	ldw	r2,-32(fp)
   41b90:	10800104 	addi	r2,r2,4
   41b94:	100490fa 	slli	r2,r2,3
   41b98:	2085883a 	add	r2,r4,r2
   41b9c:	10c00015 	stw	r3,0(r2)
			c += (*c & 0x1f) + 1;
			break;

		case CEA_DB_VIDEO:
			cea->db_video.nr_svd = (int)(*c & 0x1f);
			for (i = 0; i < cea->db_video.nr_svd; ++i) {
   41ba0:	e0bff817 	ldw	r2,-32(fp)
   41ba4:	10800044 	addi	r2,r2,1
   41ba8:	e0bff815 	stw	r2,-32(fp)
   41bac:	e0bffb17 	ldw	r2,-20(fp)
   41bb0:	10800617 	ldw	r2,24(r2)
   41bb4:	e0fff817 	ldw	r3,-32(fp)
   41bb8:	18bfdc16 	blt	r3,r2,41b2c <__alt_data_end+0xfffd5c0c>
				cea->db_video.svd[i].native = c[1 + i] & 0x80 ? 1 : 0;
				cea->db_video.svd[i].vic = (int)(c[1 + i] & 0x7f);
			}
			c += (*c & 0x1f) + 1;
   41bbc:	e0bff617 	ldw	r2,-40(fp)
   41bc0:	10800003 	ldbu	r2,0(r2)
   41bc4:	10803fcc 	andi	r2,r2,255
   41bc8:	108007cc 	andi	r2,r2,31
   41bcc:	10800044 	addi	r2,r2,1
   41bd0:	e0fff617 	ldw	r3,-40(fp)
   41bd4:	1885883a 	add	r2,r3,r2
   41bd8:	e0bff615 	stw	r2,-40(fp)
			break;
   41bdc:	00014706 	br	420fc <edid_decode_cea+0x914>

		case CEA_DB_VENDOR:
			if ((c[1] != 0x03) || (c[2] != 0x0c) || (c[3] != 0x00))
   41be0:	e0bff617 	ldw	r2,-40(fp)
   41be4:	10800044 	addi	r2,r2,1
   41be8:	10800003 	ldbu	r2,0(r2)
   41bec:	10803fcc 	andi	r2,r2,255
   41bf0:	108000d8 	cmpnei	r2,r2,3
   41bf4:	10000b1e 	bne	r2,zero,41c24 <edid_decode_cea+0x43c>
   41bf8:	e0bff617 	ldw	r2,-40(fp)
   41bfc:	10800084 	addi	r2,r2,2
   41c00:	10800003 	ldbu	r2,0(r2)
   41c04:	10803fcc 	andi	r2,r2,255
   41c08:	10800318 	cmpnei	r2,r2,12
   41c0c:	1000051e 	bne	r2,zero,41c24 <edid_decode_cea+0x43c>
   41c10:	e0bff617 	ldw	r2,-40(fp)
   41c14:	108000c4 	addi	r2,r2,3
   41c18:	10800003 	ldbu	r2,0(r2)
   41c1c:	10803fcc 	andi	r2,r2,255
   41c20:	10000226 	beq	r2,zero,41c2c <edid_decode_cea+0x444>
				return -1;
   41c24:	00bfffc4 	movi	r2,-1
   41c28:	00036006 	br	429ac <edid_decode_cea+0x11c4>
			cea->db_vsdb_hdmi.addr_a = (int)(c[4] >> 4);
   41c2c:	e0bff617 	ldw	r2,-40(fp)
   41c30:	10800104 	addi	r2,r2,4
   41c34:	10800003 	ldbu	r2,0(r2)
   41c38:	10803fcc 	andi	r2,r2,255
   41c3c:	1004d13a 	srli	r2,r2,4
   41c40:	10c03fcc 	andi	r3,r2,255
   41c44:	e0bffb17 	ldw	r2,-20(fp)
   41c48:	10c07b15 	stw	r3,492(r2)
			cea->db_vsdb_hdmi.addr_b = (int)(c[4] & 0x0f);
   41c4c:	e0bff617 	ldw	r2,-40(fp)
   41c50:	10800104 	addi	r2,r2,4
   41c54:	10800003 	ldbu	r2,0(r2)
   41c58:	10803fcc 	andi	r2,r2,255
   41c5c:	10c003cc 	andi	r3,r2,15
   41c60:	e0bffb17 	ldw	r2,-20(fp)
   41c64:	10c07c15 	stw	r3,496(r2)
			cea->db_vsdb_hdmi.addr_c = (int)(c[5] >> 4);
   41c68:	e0bff617 	ldw	r2,-40(fp)
   41c6c:	10800144 	addi	r2,r2,5
   41c70:	10800003 	ldbu	r2,0(r2)
   41c74:	10803fcc 	andi	r2,r2,255
   41c78:	1004d13a 	srli	r2,r2,4
   41c7c:	10c03fcc 	andi	r3,r2,255
   41c80:	e0bffb17 	ldw	r2,-20(fp)
   41c84:	10c07d15 	stw	r3,500(r2)
			cea->db_vsdb_hdmi.addr_d = (int)(c[5] & 0x0f);
   41c88:	e0bff617 	ldw	r2,-40(fp)
   41c8c:	10800144 	addi	r2,r2,5
   41c90:	10800003 	ldbu	r2,0(r2)
   41c94:	10803fcc 	andi	r2,r2,255
   41c98:	10c003cc 	andi	r3,r2,15
   41c9c:	e0bffb17 	ldw	r2,-20(fp)
   41ca0:	10c07e15 	stw	r3,504(r2)

			if ((*c & 0x1f) >= 6) {
   41ca4:	e0bff617 	ldw	r2,-40(fp)
   41ca8:	10800003 	ldbu	r2,0(r2)
   41cac:	10803fcc 	andi	r2,r2,255
   41cb0:	108007cc 	andi	r2,r2,31
   41cb4:	10800190 	cmplti	r2,r2,6
   41cb8:	1000361e 	bne	r2,zero,41d94 <edid_decode_cea+0x5ac>
				cea->db_vsdb_hdmi.ai = (c[6] & 0x80) ? 1 : 0;
   41cbc:	e0bff617 	ldw	r2,-40(fp)
   41cc0:	10800184 	addi	r2,r2,6
   41cc4:	10800003 	ldbu	r2,0(r2)
   41cc8:	10803fcc 	andi	r2,r2,255
   41ccc:	1004d1fa 	srli	r2,r2,7
   41cd0:	10c03fcc 	andi	r3,r2,255
   41cd4:	e0bffb17 	ldw	r2,-20(fp)
   41cd8:	10c07f15 	stw	r3,508(r2)
				cea->db_vsdb_hdmi.bpp48 = (c[6] & 0x40) ? 1 : 0;
   41cdc:	e0bff617 	ldw	r2,-40(fp)
   41ce0:	10800184 	addi	r2,r2,6
   41ce4:	10800003 	ldbu	r2,0(r2)
   41ce8:	10803fcc 	andi	r2,r2,255
   41cec:	1080100c 	andi	r2,r2,64
   41cf0:	1004c03a 	cmpne	r2,r2,zero
   41cf4:	10c03fcc 	andi	r3,r2,255
   41cf8:	e0bffb17 	ldw	r2,-20(fp)
   41cfc:	10c08215 	stw	r3,520(r2)
				cea->db_vsdb_hdmi.bpp36 = (c[6] & 0x20) ? 1 : 0;
   41d00:	e0bff617 	ldw	r2,-40(fp)
   41d04:	10800184 	addi	r2,r2,6
   41d08:	10800003 	ldbu	r2,0(r2)
   41d0c:	10803fcc 	andi	r2,r2,255
   41d10:	1080080c 	andi	r2,r2,32
   41d14:	1004c03a 	cmpne	r2,r2,zero
   41d18:	10c03fcc 	andi	r3,r2,255
   41d1c:	e0bffb17 	ldw	r2,-20(fp)
   41d20:	10c08115 	stw	r3,516(r2)
				cea->db_vsdb_hdmi.bpp30 = (c[6] & 0x10) ? 1 : 0;
   41d24:	e0bff617 	ldw	r2,-40(fp)
   41d28:	10800184 	addi	r2,r2,6
   41d2c:	10800003 	ldbu	r2,0(r2)
   41d30:	10803fcc 	andi	r2,r2,255
   41d34:	1080040c 	andi	r2,r2,16
   41d38:	1004c03a 	cmpne	r2,r2,zero
   41d3c:	10c03fcc 	andi	r3,r2,255
   41d40:	e0bffb17 	ldw	r2,-20(fp)
   41d44:	10c08015 	stw	r3,512(r2)
				cea->db_vsdb_hdmi.ycbcr444 = (c[6] & 0x08) ? 1 : 0;
   41d48:	e0bff617 	ldw	r2,-40(fp)
   41d4c:	10800184 	addi	r2,r2,6
   41d50:	10800003 	ldbu	r2,0(r2)
   41d54:	10803fcc 	andi	r2,r2,255
   41d58:	1080020c 	andi	r2,r2,8
   41d5c:	1004c03a 	cmpne	r2,r2,zero
   41d60:	10c03fcc 	andi	r3,r2,255
   41d64:	e0bffb17 	ldw	r2,-20(fp)
   41d68:	10c08315 	stw	r3,524(r2)
				cea->db_vsdb_hdmi.dvi_dual = (c[6] & 0x01) ? 1 : 0;
   41d6c:	e0bff617 	ldw	r2,-40(fp)
   41d70:	10800184 	addi	r2,r2,6
   41d74:	10800003 	ldbu	r2,0(r2)
   41d78:	10803fcc 	andi	r2,r2,255
   41d7c:	1080004c 	andi	r2,r2,1
   41d80:	1004c03a 	cmpne	r2,r2,zero
   41d84:	10c03fcc 	andi	r3,r2,255
   41d88:	e0bffb17 	ldw	r2,-20(fp)
   41d8c:	10c08415 	stw	r3,528(r2)
   41d90:	00000c06 	br	41dc4 <edid_decode_cea+0x5dc>
			} else {
				cea->db_vsdb_hdmi.ai = 0;
   41d94:	e0bffb17 	ldw	r2,-20(fp)
   41d98:	10007f15 	stw	zero,508(r2)
				cea->db_vsdb_hdmi.bpp48 = 0;
   41d9c:	e0bffb17 	ldw	r2,-20(fp)
   41da0:	10008215 	stw	zero,520(r2)
				cea->db_vsdb_hdmi.bpp36 = 0;
   41da4:	e0bffb17 	ldw	r2,-20(fp)
   41da8:	10008115 	stw	zero,516(r2)
				cea->db_vsdb_hdmi.bpp30 = 0;
   41dac:	e0bffb17 	ldw	r2,-20(fp)
   41db0:	10008015 	stw	zero,512(r2)
				cea->db_vsdb_hdmi.ycbcr444 = 0;
   41db4:	e0bffb17 	ldw	r2,-20(fp)
   41db8:	10008315 	stw	zero,524(r2)
				cea->db_vsdb_hdmi.dvi_dual = 0;
   41dbc:	e0bffb17 	ldw	r2,-20(fp)
   41dc0:	10008415 	stw	zero,528(r2)
			}

			if ((*c & 0x1f) >= 7) {
   41dc4:	e0bff617 	ldw	r2,-40(fp)
   41dc8:	10800003 	ldbu	r2,0(r2)
   41dcc:	10803fcc 	andi	r2,r2,255
   41dd0:	108007cc 	andi	r2,r2,31
   41dd4:	108001d0 	cmplti	r2,r2,7
   41dd8:	1000081e 	bne	r2,zero,41dfc <edid_decode_cea+0x614>
				cea->db_vsdb_hdmi.max_tmds_clk = c[7] * 5;
   41ddc:	e0bff617 	ldw	r2,-40(fp)
   41de0:	108001c4 	addi	r2,r2,7
   41de4:	10800003 	ldbu	r2,0(r2)
   41de8:	10803fcc 	andi	r2,r2,255
   41dec:	10c00164 	muli	r3,r2,5
   41df0:	e0bffb17 	ldw	r2,-20(fp)
   41df4:	10c08515 	stw	r3,532(r2)
   41df8:	00000206 	br	41e04 <edid_decode_cea+0x61c>
			} else {
				cea->db_vsdb_hdmi.max_tmds_clk = 0;
   41dfc:	e0bffb17 	ldw	r2,-20(fp)
   41e00:	10008515 	stw	zero,532(r2)
			}

			cea->db_vsdb_hdmi.vid_latency_p = 0;
   41e04:	e0bffb17 	ldw	r2,-20(fp)
   41e08:	10008615 	stw	zero,536(r2)
			cea->db_vsdb_hdmi.aud_latency_p = 0;
   41e0c:	e0bffb17 	ldw	r2,-20(fp)
   41e10:	10008715 	stw	zero,540(r2)
			cea->db_vsdb_hdmi.vid_latency_i = 0;
   41e14:	e0bffb17 	ldw	r2,-20(fp)
   41e18:	10008815 	stw	zero,544(r2)
			cea->db_vsdb_hdmi.aud_latency_i = 0;
   41e1c:	e0bffb17 	ldw	r2,-20(fp)
   41e20:	10008915 	stw	zero,548(r2)

			if ((*c & 0x1f) >= 8) {
   41e24:	e0bff617 	ldw	r2,-40(fp)
   41e28:	10800003 	ldbu	r2,0(r2)
   41e2c:	10803fcc 	andi	r2,r2,255
   41e30:	108007cc 	andi	r2,r2,31
   41e34:	10800210 	cmplti	r2,r2,8
   41e38:	1000311e 	bne	r2,zero,41f00 <edid_decode_cea+0x718>
				if (c[8] & 0x80) {
   41e3c:	e0bff617 	ldw	r2,-40(fp)
   41e40:	10800204 	addi	r2,r2,8
   41e44:	10800003 	ldbu	r2,0(r2)
   41e48:	10803fcc 	andi	r2,r2,255
   41e4c:	1080201c 	xori	r2,r2,128
   41e50:	10bfe004 	addi	r2,r2,-128
   41e54:	1000120e 	bge	r2,zero,41ea0 <edid_decode_cea+0x6b8>
					cea->db_vsdb_hdmi.vid_latency_p = (c[9] - 1) * 2;  // (ms)
   41e58:	e0bff617 	ldw	r2,-40(fp)
   41e5c:	10800244 	addi	r2,r2,9
   41e60:	10800003 	ldbu	r2,0(r2)
   41e64:	10803fcc 	andi	r2,r2,255
   41e68:	10bfffc4 	addi	r2,r2,-1
   41e6c:	1085883a 	add	r2,r2,r2
   41e70:	1007883a 	mov	r3,r2
   41e74:	e0bffb17 	ldw	r2,-20(fp)
   41e78:	10c08615 	stw	r3,536(r2)
					cea->db_vsdb_hdmi.aud_latency_p = (c[10] - 1) * 2;  // (ms)
   41e7c:	e0bff617 	ldw	r2,-40(fp)
   41e80:	10800284 	addi	r2,r2,10
   41e84:	10800003 	ldbu	r2,0(r2)
   41e88:	10803fcc 	andi	r2,r2,255
   41e8c:	10bfffc4 	addi	r2,r2,-1
   41e90:	1085883a 	add	r2,r2,r2
   41e94:	1007883a 	mov	r3,r2
   41e98:	e0bffb17 	ldw	r2,-20(fp)
   41e9c:	10c08715 	stw	r3,540(r2)
				}
				if (c[8] & 0x40) {
   41ea0:	e0bff617 	ldw	r2,-40(fp)
   41ea4:	10800204 	addi	r2,r2,8
   41ea8:	10800003 	ldbu	r2,0(r2)
   41eac:	10803fcc 	andi	r2,r2,255
   41eb0:	1080100c 	andi	r2,r2,64
   41eb4:	10001226 	beq	r2,zero,41f00 <edid_decode_cea+0x718>
					cea->db_vsdb_hdmi.vid_latency_i = (c[11] - 1) * 2;  // (ms)
   41eb8:	e0bff617 	ldw	r2,-40(fp)
   41ebc:	108002c4 	addi	r2,r2,11
   41ec0:	10800003 	ldbu	r2,0(r2)
   41ec4:	10803fcc 	andi	r2,r2,255
   41ec8:	10bfffc4 	addi	r2,r2,-1
   41ecc:	1085883a 	add	r2,r2,r2
   41ed0:	1007883a 	mov	r3,r2
   41ed4:	e0bffb17 	ldw	r2,-20(fp)
   41ed8:	10c08815 	stw	r3,544(r2)
					cea->db_vsdb_hdmi.aud_latency_i = (c[12] - 1) * 2;  // (ms)
   41edc:	e0bff617 	ldw	r2,-40(fp)
   41ee0:	10800304 	addi	r2,r2,12
   41ee4:	10800003 	ldbu	r2,0(r2)
   41ee8:	10803fcc 	andi	r2,r2,255
   41eec:	10bfffc4 	addi	r2,r2,-1
   41ef0:	1085883a 	add	r2,r2,r2
   41ef4:	1007883a 	mov	r3,r2
   41ef8:	e0bffb17 	ldw	r2,-20(fp)
   41efc:	10c08915 	stw	r3,548(r2)
				}
			}

			c += (*c & 0x1f) + 1;
   41f00:	e0bff617 	ldw	r2,-40(fp)
   41f04:	10800003 	ldbu	r2,0(r2)
   41f08:	10803fcc 	andi	r2,r2,255
   41f0c:	108007cc 	andi	r2,r2,31
   41f10:	10800044 	addi	r2,r2,1
   41f14:	e0fff617 	ldw	r3,-40(fp)
   41f18:	1885883a 	add	r2,r3,r2
   41f1c:	e0bff615 	stw	r2,-40(fp)
			break;
   41f20:	00007606 	br	420fc <edid_decode_cea+0x914>

		case CEA_DB_SPEAKER:
			cea->db_speaker.designation = (int)(c[1] & 0x7f);
   41f24:	e0bff617 	ldw	r2,-40(fp)
   41f28:	10800044 	addi	r2,r2,1
   41f2c:	10800003 	ldbu	r2,0(r2)
   41f30:	10803fcc 	andi	r2,r2,255
   41f34:	10c01fcc 	andi	r3,r2,127
   41f38:	e0bffb17 	ldw	r2,-20(fp)
   41f3c:	10c07a15 	stw	r3,488(r2)
			c += (*c & 0x1f) + 1;
   41f40:	e0bff617 	ldw	r2,-40(fp)
   41f44:	10800003 	ldbu	r2,0(r2)
   41f48:	10803fcc 	andi	r2,r2,255
   41f4c:	108007cc 	andi	r2,r2,31
   41f50:	10800044 	addi	r2,r2,1
   41f54:	e0fff617 	ldw	r3,-40(fp)
   41f58:	1885883a 	add	r2,r3,r2
   41f5c:	e0bff615 	stw	r2,-40(fp)
			break;
   41f60:	00006606 	br	420fc <edid_decode_cea+0x914>

		case CEA_DB_DTC:
			c += (*c & 0x1f) + 1;
   41f64:	e0bff617 	ldw	r2,-40(fp)
   41f68:	10800003 	ldbu	r2,0(r2)
   41f6c:	10803fcc 	andi	r2,r2,255
   41f70:	108007cc 	andi	r2,r2,31
   41f74:	10800044 	addi	r2,r2,1
   41f78:	e0fff617 	ldw	r3,-40(fp)
   41f7c:	1885883a 	add	r2,r3,r2
   41f80:	e0bff615 	stw	r2,-40(fp)
			break;
   41f84:	00005d06 	br	420fc <edid_decode_cea+0x914>

		case CEA_DB_EXTENDED:
			switch (c[1]) {
   41f88:	e0bff617 	ldw	r2,-40(fp)
   41f8c:	10800044 	addi	r2,r2,1
   41f90:	10800003 	ldbu	r2,0(r2)
   41f94:	10803fcc 	andi	r2,r2,255
   41f98:	10c004e8 	cmpgeui	r3,r2,19
   41f9c:	18004b1e 	bne	r3,zero,420cc <edid_decode_cea+0x8e4>
   41fa0:	100690ba 	slli	r3,r2,2
   41fa4:	00800134 	movhi	r2,4
   41fa8:	1087ee04 	addi	r2,r2,8120
   41fac:	1885883a 	add	r2,r3,r2
   41fb0:	10800017 	ldw	r2,0(r2)
   41fb4:	1000683a 	jmp	r2
   41fb8:	00042004 	movi	zero,4224
   41fbc:	000420cc 	andi	zero,zero,4227
   41fc0:	000420cc 	andi	zero,zero,4227
   41fc4:	000420cc 	andi	zero,zero,4227
   41fc8:	000420cc 	andi	zero,zero,4227
   41fcc:	00042090 	cmplti	zero,zero,4226
   41fd0:	000420cc 	andi	zero,zero,4227
   41fd4:	000420cc 	andi	zero,zero,4227
   41fd8:	000420cc 	andi	zero,zero,4227
   41fdc:	000420cc 	andi	zero,zero,4227
   41fe0:	000420cc 	andi	zero,zero,4227
   41fe4:	000420cc 	andi	zero,zero,4227
   41fe8:	000420cc 	andi	zero,zero,4227
   41fec:	000420cc 	andi	zero,zero,4227
   41ff0:	000420cc 	andi	zero,zero,4227
   41ff4:	000420cc 	andi	zero,zero,4227
   41ff8:	000420cc 	andi	zero,zero,4227
   41ffc:	000420cc 	andi	zero,zero,4227
   42000:	000420cc 	andi	zero,zero,4227
			case CEA_DBE_VIDEO_CAP:
				cea->db_vcdb.quant_range_sel = (c[2] & 0x40) ? 1 : 0;
   42004:	e0bff617 	ldw	r2,-40(fp)
   42008:	10800084 	addi	r2,r2,2
   4200c:	10800003 	ldbu	r2,0(r2)
   42010:	10803fcc 	andi	r2,r2,255
   42014:	1080100c 	andi	r2,r2,64
   42018:	1004c03a 	cmpne	r2,r2,zero
   4201c:	10c03fcc 	andi	r3,r2,255
   42020:	e0bffb17 	ldw	r2,-20(fp)
   42024:	10c08c15 	stw	r3,560(r2)
				cea->db_vcdb.pt_scan_behavior = (int)((c[2] >> 4) & 0x03);
   42028:	e0bff617 	ldw	r2,-40(fp)
   4202c:	10800084 	addi	r2,r2,2
   42030:	10800003 	ldbu	r2,0(r2)
   42034:	10803fcc 	andi	r2,r2,255
   42038:	1004d13a 	srli	r2,r2,4
   4203c:	10803fcc 	andi	r2,r2,255
   42040:	10c000cc 	andi	r3,r2,3
   42044:	e0bffb17 	ldw	r2,-20(fp)
   42048:	10c08d15 	stw	r3,564(r2)
				cea->db_vcdb.it_scan_behavior = (int)((c[2] >> 2) & 0x03);
   4204c:	e0bff617 	ldw	r2,-40(fp)
   42050:	10800084 	addi	r2,r2,2
   42054:	10800003 	ldbu	r2,0(r2)
   42058:	10803fcc 	andi	r2,r2,255
   4205c:	1004d0ba 	srli	r2,r2,2
   42060:	10803fcc 	andi	r2,r2,255
   42064:	10c000cc 	andi	r3,r2,3
   42068:	e0bffb17 	ldw	r2,-20(fp)
   4206c:	10c08e15 	stw	r3,568(r2)
				cea->db_vcdb.ce_scan_behavior = (int)(c[2] & 0x03);
   42070:	e0bff617 	ldw	r2,-40(fp)
   42074:	10800084 	addi	r2,r2,2
   42078:	10800003 	ldbu	r2,0(r2)
   4207c:	10803fcc 	andi	r2,r2,255
   42080:	10c000cc 	andi	r3,r2,3
   42084:	e0bffb17 	ldw	r2,-20(fp)
   42088:	10c08f15 	stw	r3,572(r2)
				break;
   4208c:	00000f06 	br	420cc <edid_decode_cea+0x8e4>
			case CEA_DBE_VIDEO_VESA:
				break;
			case CEA_DBE_VIDEO_HDMI:
				break;
			case CEA_DBE_COLORIMETRY:
				cea->db_colorimetry.xvYCC = (int)(c[2] & 0x03);
   42090:	e0bff617 	ldw	r2,-40(fp)
   42094:	10800084 	addi	r2,r2,2
   42098:	10800003 	ldbu	r2,0(r2)
   4209c:	10803fcc 	andi	r2,r2,255
   420a0:	10c000cc 	andi	r3,r2,3
   420a4:	e0bffb17 	ldw	r2,-20(fp)
   420a8:	10c08a15 	stw	r3,552(r2)
				cea->db_colorimetry.metadata = (int)(c[3] & 0x07);
   420ac:	e0bff617 	ldw	r2,-40(fp)
   420b0:	108000c4 	addi	r2,r2,3
   420b4:	10800003 	ldbu	r2,0(r2)
   420b8:	10803fcc 	andi	r2,r2,255
   420bc:	10c001cc 	andi	r3,r2,7
   420c0:	e0bffb17 	ldw	r2,-20(fp)
   420c4:	10c08b15 	stw	r3,556(r2)
				break;
   420c8:	0001883a 	nop
				break;
			case CEA_DBE_AUDIO_HDMI:
				break;
			}

			c += (*c & 0x1f) + 1;
   420cc:	e0bff617 	ldw	r2,-40(fp)
   420d0:	10800003 	ldbu	r2,0(r2)
   420d4:	10803fcc 	andi	r2,r2,255
   420d8:	108007cc 	andi	r2,r2,31
   420dc:	10800044 	addi	r2,r2,1
   420e0:	e0fff617 	ldw	r3,-40(fp)
   420e4:	1885883a 	add	r2,r3,r2
   420e8:	e0bff615 	stw	r2,-40(fp)
			break;
   420ec:	00000306 	br	420fc <edid_decode_cea+0x914>

		default:
			c = dtd;
   420f0:	e0bff717 	ldw	r2,-36(fp)
   420f4:	e0bff615 	stw	r2,-40(fp)
			break;
   420f8:	0001883a 	nop
	cea->nr_dtd = c[1];

	// data block collection
	c = &ext_bin[4];

	while (c < dtd) {
   420fc:	e0fff617 	ldw	r3,-40(fp)
   42100:	e0bff717 	ldw	r2,-36(fp)
   42104:	18bdf636 	bltu	r3,r2,418e0 <__alt_data_end+0xfffd59c0>
			break;
		}
	}

	// detail timing descriptor
	if (dtd == 0)
   42108:	e0bff717 	ldw	r2,-36(fp)
   4210c:	1000021e 	bne	r2,zero,42118 <edid_decode_cea+0x930>
		return 0;
   42110:	0005883a 	mov	r2,zero
   42114:	00022506 	br	429ac <edid_decode_cea+0x11c4>

	for (i = 0; i < (int)cea->nr_dtd; ++i) {
   42118:	e03ff815 	stw	zero,-32(fp)
   4211c:	00021e06 	br	42998 <edid_decode_cea+0x11b0>
		c = &dtd[18 * i];
   42120:	e0bff817 	ldw	r2,-32(fp)
   42124:	108004a4 	muli	r2,r2,18
   42128:	1007883a 	mov	r3,r2
   4212c:	e0bff717 	ldw	r2,-36(fp)
   42130:	10c5883a 	add	r2,r2,r3
   42134:	e0bff615 	stw	r2,-40(fp)

        cea->detailed_timing[i].pixel_clock = (((int)c[1] << 8) | (int)c[0]) * 10000;
   42138:	e0bff617 	ldw	r2,-40(fp)
   4213c:	10800044 	addi	r2,r2,1
   42140:	10800003 	ldbu	r2,0(r2)
   42144:	10803fcc 	andi	r2,r2,255
   42148:	1006923a 	slli	r3,r2,8
   4214c:	e0bff617 	ldw	r2,-40(fp)
   42150:	10800003 	ldbu	r2,0(r2)
   42154:	10803fcc 	andi	r2,r2,255
   42158:	1884b03a 	or	r2,r3,r2
   4215c:	10c9c424 	muli	r3,r2,10000
   42160:	e13ffb17 	ldw	r4,-20(fp)
   42164:	e0bff817 	ldw	r2,-32(fp)
   42168:	10800244 	addi	r2,r2,9
   4216c:	100491ba 	slli	r2,r2,6
   42170:	2085883a 	add	r2,r4,r2
   42174:	10c00015 	stw	r3,0(r2)
        cea->detailed_timing[i].width = (((int)c[4] << 4) & 0xf00) | (int)c[2];
   42178:	e0bff617 	ldw	r2,-40(fp)
   4217c:	10800104 	addi	r2,r2,4
   42180:	10800003 	ldbu	r2,0(r2)
   42184:	10803fcc 	andi	r2,r2,255
   42188:	1004913a 	slli	r2,r2,4
   4218c:	10c3c00c 	andi	r3,r2,3840
   42190:	e0bff617 	ldw	r2,-40(fp)
   42194:	10800084 	addi	r2,r2,2
   42198:	10800003 	ldbu	r2,0(r2)
   4219c:	10803fcc 	andi	r2,r2,255
   421a0:	1886b03a 	or	r3,r3,r2
   421a4:	e13ffb17 	ldw	r4,-20(fp)
   421a8:	e0bff817 	ldw	r2,-32(fp)
   421ac:	100491ba 	slli	r2,r2,6
   421b0:	2085883a 	add	r2,r4,r2
   421b4:	10809104 	addi	r2,r2,580
   421b8:	10c00015 	stw	r3,0(r2)
        cea->detailed_timing[i].height = (((int)c[7] << 4) & 0xf00) | (int)c[5];
   421bc:	e0bff617 	ldw	r2,-40(fp)
   421c0:	108001c4 	addi	r2,r2,7
   421c4:	10800003 	ldbu	r2,0(r2)
   421c8:	10803fcc 	andi	r2,r2,255
   421cc:	1004913a 	slli	r2,r2,4
   421d0:	10c3c00c 	andi	r3,r2,3840
   421d4:	e0bff617 	ldw	r2,-40(fp)
   421d8:	10800144 	addi	r2,r2,5
   421dc:	10800003 	ldbu	r2,0(r2)
   421e0:	10803fcc 	andi	r2,r2,255
   421e4:	1886b03a 	or	r3,r3,r2
   421e8:	e13ffb17 	ldw	r4,-20(fp)
   421ec:	e0bff817 	ldw	r2,-32(fp)
   421f0:	100491ba 	slli	r2,r2,6
   421f4:	2085883a 	add	r2,r4,r2
   421f8:	10809204 	addi	r2,r2,584
   421fc:	10c00015 	stw	r3,0(r2)
        cea->detailed_timing[i].h_blank = (((int)c[4] << 8) & 0xf00) | (int)c[3];
   42200:	e0bff617 	ldw	r2,-40(fp)
   42204:	10800104 	addi	r2,r2,4
   42208:	10800003 	ldbu	r2,0(r2)
   4220c:	10803fcc 	andi	r2,r2,255
   42210:	1004923a 	slli	r2,r2,8
   42214:	10c3c00c 	andi	r3,r2,3840
   42218:	e0bff617 	ldw	r2,-40(fp)
   4221c:	108000c4 	addi	r2,r2,3
   42220:	10800003 	ldbu	r2,0(r2)
   42224:	10803fcc 	andi	r2,r2,255
   42228:	1886b03a 	or	r3,r3,r2
   4222c:	e13ffb17 	ldw	r4,-20(fp)
   42230:	e0bff817 	ldw	r2,-32(fp)
   42234:	100491ba 	slli	r2,r2,6
   42238:	2085883a 	add	r2,r4,r2
   4223c:	10809304 	addi	r2,r2,588
   42240:	10c00015 	stw	r3,0(r2)
        cea->detailed_timing[i].v_blank = (((int)c[7] << 8) & 0xf00) | (int)c[6];
   42244:	e0bff617 	ldw	r2,-40(fp)
   42248:	108001c4 	addi	r2,r2,7
   4224c:	10800003 	ldbu	r2,0(r2)
   42250:	10803fcc 	andi	r2,r2,255
   42254:	1004923a 	slli	r2,r2,8
   42258:	10c3c00c 	andi	r3,r2,3840
   4225c:	e0bff617 	ldw	r2,-40(fp)
   42260:	10800184 	addi	r2,r2,6
   42264:	10800003 	ldbu	r2,0(r2)
   42268:	10803fcc 	andi	r2,r2,255
   4226c:	1886b03a 	or	r3,r3,r2
   42270:	e13ffb17 	ldw	r4,-20(fp)
   42274:	e0bff817 	ldw	r2,-32(fp)
   42278:	100491ba 	slli	r2,r2,6
   4227c:	2085883a 	add	r2,r4,r2
   42280:	10809404 	addi	r2,r2,592
   42284:	10c00015 	stw	r3,0(r2)
        cea->detailed_timing[i].h_fp = (((int)c[11] << 2) & 0x300) | (int)c[8];
   42288:	e0bff617 	ldw	r2,-40(fp)
   4228c:	108002c4 	addi	r2,r2,11
   42290:	10800003 	ldbu	r2,0(r2)
   42294:	10803fcc 	andi	r2,r2,255
   42298:	1085883a 	add	r2,r2,r2
   4229c:	1085883a 	add	r2,r2,r2
   422a0:	10c0c00c 	andi	r3,r2,768
   422a4:	e0bff617 	ldw	r2,-40(fp)
   422a8:	10800204 	addi	r2,r2,8
   422ac:	10800003 	ldbu	r2,0(r2)
   422b0:	10803fcc 	andi	r2,r2,255
   422b4:	1886b03a 	or	r3,r3,r2
   422b8:	e13ffb17 	ldw	r4,-20(fp)
   422bc:	e0bff817 	ldw	r2,-32(fp)
   422c0:	100491ba 	slli	r2,r2,6
   422c4:	2085883a 	add	r2,r4,r2
   422c8:	10809504 	addi	r2,r2,596
   422cc:	10c00015 	stw	r3,0(r2)
        cea->detailed_timing[i].v_fp = (((int)c[11] << 2) & 0x30) | ((int)c[10] >> 4);
   422d0:	e0bff617 	ldw	r2,-40(fp)
   422d4:	108002c4 	addi	r2,r2,11
   422d8:	10800003 	ldbu	r2,0(r2)
   422dc:	10803fcc 	andi	r2,r2,255
   422e0:	1085883a 	add	r2,r2,r2
   422e4:	1085883a 	add	r2,r2,r2
   422e8:	10c00c0c 	andi	r3,r2,48
   422ec:	e0bff617 	ldw	r2,-40(fp)
   422f0:	10800284 	addi	r2,r2,10
   422f4:	10800003 	ldbu	r2,0(r2)
   422f8:	10803fcc 	andi	r2,r2,255
   422fc:	1004d13a 	srli	r2,r2,4
   42300:	10803fcc 	andi	r2,r2,255
   42304:	1886b03a 	or	r3,r3,r2
   42308:	e13ffb17 	ldw	r4,-20(fp)
   4230c:	e0bff817 	ldw	r2,-32(fp)
   42310:	100491ba 	slli	r2,r2,6
   42314:	2085883a 	add	r2,r4,r2
   42318:	10809604 	addi	r2,r2,600
   4231c:	10c00015 	stw	r3,0(r2)
        cea->detailed_timing[i].h_sync = (((int)c[11] << 4) & 0x300) | (int)c[9];
   42320:	e0bff617 	ldw	r2,-40(fp)
   42324:	108002c4 	addi	r2,r2,11
   42328:	10800003 	ldbu	r2,0(r2)
   4232c:	10803fcc 	andi	r2,r2,255
   42330:	1004913a 	slli	r2,r2,4
   42334:	10c0c00c 	andi	r3,r2,768
   42338:	e0bff617 	ldw	r2,-40(fp)
   4233c:	10800244 	addi	r2,r2,9
   42340:	10800003 	ldbu	r2,0(r2)
   42344:	10803fcc 	andi	r2,r2,255
   42348:	1886b03a 	or	r3,r3,r2
   4234c:	e13ffb17 	ldw	r4,-20(fp)
   42350:	e0bff817 	ldw	r2,-32(fp)
   42354:	100491ba 	slli	r2,r2,6
   42358:	2085883a 	add	r2,r4,r2
   4235c:	10809704 	addi	r2,r2,604
   42360:	10c00015 	stw	r3,0(r2)
        cea->detailed_timing[i].v_sync = (((int)c[11] << 4) & 0x30) | ((int)c[10] & 0x0f);
   42364:	e0bff617 	ldw	r2,-40(fp)
   42368:	108002c4 	addi	r2,r2,11
   4236c:	10800003 	ldbu	r2,0(r2)
   42370:	10803fcc 	andi	r2,r2,255
   42374:	1004913a 	slli	r2,r2,4
   42378:	10c00c0c 	andi	r3,r2,48
   4237c:	e0bff617 	ldw	r2,-40(fp)
   42380:	10800284 	addi	r2,r2,10
   42384:	10800003 	ldbu	r2,0(r2)
   42388:	10803fcc 	andi	r2,r2,255
   4238c:	108003cc 	andi	r2,r2,15
   42390:	1886b03a 	or	r3,r3,r2
   42394:	e13ffb17 	ldw	r4,-20(fp)
   42398:	e0bff817 	ldw	r2,-32(fp)
   4239c:	100491ba 	slli	r2,r2,6
   423a0:	2085883a 	add	r2,r4,r2
   423a4:	10809804 	addi	r2,r2,608
   423a8:	10c00015 	stw	r3,0(r2)
        cea->detailed_timing[i].h_size = (((int)c[14] << 4) & 0xf00) | (int)c[12];
   423ac:	e0bff617 	ldw	r2,-40(fp)
   423b0:	10800384 	addi	r2,r2,14
   423b4:	10800003 	ldbu	r2,0(r2)
   423b8:	10803fcc 	andi	r2,r2,255
   423bc:	1004913a 	slli	r2,r2,4
   423c0:	10c3c00c 	andi	r3,r2,3840
   423c4:	e0bff617 	ldw	r2,-40(fp)
   423c8:	10800304 	addi	r2,r2,12
   423cc:	10800003 	ldbu	r2,0(r2)
   423d0:	10803fcc 	andi	r2,r2,255
   423d4:	1886b03a 	or	r3,r3,r2
   423d8:	e13ffb17 	ldw	r4,-20(fp)
   423dc:	e0bff817 	ldw	r2,-32(fp)
   423e0:	100491ba 	slli	r2,r2,6
   423e4:	2085883a 	add	r2,r4,r2
   423e8:	10809904 	addi	r2,r2,612
   423ec:	10c00015 	stw	r3,0(r2)
        cea->detailed_timing[i].v_size = (((int)c[14] << 8) & 0xf00) | (int)c[13];
   423f0:	e0bff617 	ldw	r2,-40(fp)
   423f4:	10800384 	addi	r2,r2,14
   423f8:	10800003 	ldbu	r2,0(r2)
   423fc:	10803fcc 	andi	r2,r2,255
   42400:	1004923a 	slli	r2,r2,8
   42404:	10c3c00c 	andi	r3,r2,3840
   42408:	e0bff617 	ldw	r2,-40(fp)
   4240c:	10800344 	addi	r2,r2,13
   42410:	10800003 	ldbu	r2,0(r2)
   42414:	10803fcc 	andi	r2,r2,255
   42418:	1886b03a 	or	r3,r3,r2
   4241c:	e13ffb17 	ldw	r4,-20(fp)
   42420:	e0bff817 	ldw	r2,-32(fp)
   42424:	100491ba 	slli	r2,r2,6
   42428:	2085883a 	add	r2,r4,r2
   4242c:	10809a04 	addi	r2,r2,616
   42430:	10c00015 	stw	r3,0(r2)
        cea->detailed_timing[i].border_lr = (int)c[15];
   42434:	e0bff617 	ldw	r2,-40(fp)
   42438:	108003c4 	addi	r2,r2,15
   4243c:	10800003 	ldbu	r2,0(r2)
   42440:	10c03fcc 	andi	r3,r2,255
   42444:	e13ffb17 	ldw	r4,-20(fp)
   42448:	e0bff817 	ldw	r2,-32(fp)
   4244c:	100491ba 	slli	r2,r2,6
   42450:	2085883a 	add	r2,r4,r2
   42454:	10809b04 	addi	r2,r2,620
   42458:	10c00015 	stw	r3,0(r2)
        cea->detailed_timing[i].border_tb = (int)c[16];
   4245c:	e0bff617 	ldw	r2,-40(fp)
   42460:	10800404 	addi	r2,r2,16
   42464:	10800003 	ldbu	r2,0(r2)
   42468:	10c03fcc 	andi	r3,r2,255
   4246c:	e13ffb17 	ldw	r4,-20(fp)
   42470:	e0bff817 	ldw	r2,-32(fp)
   42474:	100491ba 	slli	r2,r2,6
   42478:	2085883a 	add	r2,r4,r2
   4247c:	10809c04 	addi	r2,r2,624
   42480:	10c00015 	stw	r3,0(r2)

        cea->detailed_timing[i].interlaced = (c[17] & 0x80) ? 1 : 0;
   42484:	e0bff617 	ldw	r2,-40(fp)
   42488:	10800444 	addi	r2,r2,17
   4248c:	10800003 	ldbu	r2,0(r2)
   42490:	10803fcc 	andi	r2,r2,255
   42494:	1004d1fa 	srli	r2,r2,7
   42498:	10c03fcc 	andi	r3,r2,255
   4249c:	e13ffb17 	ldw	r4,-20(fp)
   424a0:	e0bff817 	ldw	r2,-32(fp)
   424a4:	100491ba 	slli	r2,r2,6
   424a8:	2085883a 	add	r2,r4,r2
   424ac:	10809d04 	addi	r2,r2,628
   424b0:	10c00015 	stw	r3,0(r2)

        cea->detailed_timing[i].stereo = STEREO_NONE;
   424b4:	e0fffb17 	ldw	r3,-20(fp)
   424b8:	e0bff817 	ldw	r2,-32(fp)
   424bc:	100491ba 	slli	r2,r2,6
   424c0:	1885883a 	add	r2,r3,r2
   424c4:	10809e04 	addi	r2,r2,632
   424c8:	10000015 	stw	zero,0(r2)
		if ((c[17] & 0x61) == 0x20)
   424cc:	e0bff617 	ldw	r2,-40(fp)
   424d0:	10800444 	addi	r2,r2,17
   424d4:	10800003 	ldbu	r2,0(r2)
   424d8:	10803fcc 	andi	r2,r2,255
   424dc:	1080184c 	andi	r2,r2,97
   424e0:	10800818 	cmpnei	r2,r2,32
   424e4:	10000d1e 	bne	r2,zero,4251c <edid_decode_cea+0xd34>
			cea->detailed_timing[i].stereo |= STEREO_FIELD_SEQUENTIAL_RIGHT_SYNC;
   424e8:	e0fffb17 	ldw	r3,-20(fp)
   424ec:	e0bff817 	ldw	r2,-32(fp)
   424f0:	100491ba 	slli	r2,r2,6
   424f4:	1885883a 	add	r2,r3,r2
   424f8:	10809e04 	addi	r2,r2,632
   424fc:	10800017 	ldw	r2,0(r2)
   42500:	10c00094 	ori	r3,r2,2
   42504:	e13ffb17 	ldw	r4,-20(fp)
   42508:	e0bff817 	ldw	r2,-32(fp)
   4250c:	100491ba 	slli	r2,r2,6
   42510:	2085883a 	add	r2,r4,r2
   42514:	10809e04 	addi	r2,r2,632
   42518:	10c00015 	stw	r3,0(r2)
		if ((c[17] & 0x61) == 0x40)
   4251c:	e0bff617 	ldw	r2,-40(fp)
   42520:	10800444 	addi	r2,r2,17
   42524:	10800003 	ldbu	r2,0(r2)
   42528:	10803fcc 	andi	r2,r2,255
   4252c:	1080184c 	andi	r2,r2,97
   42530:	10801018 	cmpnei	r2,r2,64
   42534:	10000d1e 	bne	r2,zero,4256c <edid_decode_cea+0xd84>
			cea->detailed_timing[i].stereo |= STEREO_FIELD_SEQUENTIAL_LEFT_SYNC;
   42538:	e0fffb17 	ldw	r3,-20(fp)
   4253c:	e0bff817 	ldw	r2,-32(fp)
   42540:	100491ba 	slli	r2,r2,6
   42544:	1885883a 	add	r2,r3,r2
   42548:	10809e04 	addi	r2,r2,632
   4254c:	10800017 	ldw	r2,0(r2)
   42550:	10c00114 	ori	r3,r2,4
   42554:	e13ffb17 	ldw	r4,-20(fp)
   42558:	e0bff817 	ldw	r2,-32(fp)
   4255c:	100491ba 	slli	r2,r2,6
   42560:	2085883a 	add	r2,r4,r2
   42564:	10809e04 	addi	r2,r2,632
   42568:	10c00015 	stw	r3,0(r2)
		if ((c[17] & 0x61) == 0x21)
   4256c:	e0bff617 	ldw	r2,-40(fp)
   42570:	10800444 	addi	r2,r2,17
   42574:	10800003 	ldbu	r2,0(r2)
   42578:	10803fcc 	andi	r2,r2,255
   4257c:	1080184c 	andi	r2,r2,97
   42580:	10800858 	cmpnei	r2,r2,33
   42584:	10000d1e 	bne	r2,zero,425bc <edid_decode_cea+0xdd4>
			cea->detailed_timing[i].stereo |= STEREO_2WAY_INTERLEAVE_RIGHT_EVEN;
   42588:	e0fffb17 	ldw	r3,-20(fp)
   4258c:	e0bff817 	ldw	r2,-32(fp)
   42590:	100491ba 	slli	r2,r2,6
   42594:	1885883a 	add	r2,r3,r2
   42598:	10809e04 	addi	r2,r2,632
   4259c:	10800017 	ldw	r2,0(r2)
   425a0:	10c00214 	ori	r3,r2,8
   425a4:	e13ffb17 	ldw	r4,-20(fp)
   425a8:	e0bff817 	ldw	r2,-32(fp)
   425ac:	100491ba 	slli	r2,r2,6
   425b0:	2085883a 	add	r2,r4,r2
   425b4:	10809e04 	addi	r2,r2,632
   425b8:	10c00015 	stw	r3,0(r2)
		if ((c[17] & 0x61) == 0x41)
   425bc:	e0bff617 	ldw	r2,-40(fp)
   425c0:	10800444 	addi	r2,r2,17
   425c4:	10800003 	ldbu	r2,0(r2)
   425c8:	10803fcc 	andi	r2,r2,255
   425cc:	1080184c 	andi	r2,r2,97
   425d0:	10801058 	cmpnei	r2,r2,65
   425d4:	10000d1e 	bne	r2,zero,4260c <edid_decode_cea+0xe24>
			cea->detailed_timing[i].stereo |= STEREO_2WAY_INTERLEAVE_LEFT_EVEN;
   425d8:	e0fffb17 	ldw	r3,-20(fp)
   425dc:	e0bff817 	ldw	r2,-32(fp)
   425e0:	100491ba 	slli	r2,r2,6
   425e4:	1885883a 	add	r2,r3,r2
   425e8:	10809e04 	addi	r2,r2,632
   425ec:	10800017 	ldw	r2,0(r2)
   425f0:	10c00414 	ori	r3,r2,16
   425f4:	e13ffb17 	ldw	r4,-20(fp)
   425f8:	e0bff817 	ldw	r2,-32(fp)
   425fc:	100491ba 	slli	r2,r2,6
   42600:	2085883a 	add	r2,r4,r2
   42604:	10809e04 	addi	r2,r2,632
   42608:	10c00015 	stw	r3,0(r2)
		if ((c[17] & 0x61) == 0x60)
   4260c:	e0bff617 	ldw	r2,-40(fp)
   42610:	10800444 	addi	r2,r2,17
   42614:	10800003 	ldbu	r2,0(r2)
   42618:	10803fcc 	andi	r2,r2,255
   4261c:	1080184c 	andi	r2,r2,97
   42620:	10801818 	cmpnei	r2,r2,96
   42624:	10000d1e 	bne	r2,zero,4265c <edid_decode_cea+0xe74>
			cea->detailed_timing[i].stereo |= STEREO_4WAY_INTERLEAVE;
   42628:	e0fffb17 	ldw	r3,-20(fp)
   4262c:	e0bff817 	ldw	r2,-32(fp)
   42630:	100491ba 	slli	r2,r2,6
   42634:	1885883a 	add	r2,r3,r2
   42638:	10809e04 	addi	r2,r2,632
   4263c:	10800017 	ldw	r2,0(r2)
   42640:	10c00814 	ori	r3,r2,32
   42644:	e13ffb17 	ldw	r4,-20(fp)
   42648:	e0bff817 	ldw	r2,-32(fp)
   4264c:	100491ba 	slli	r2,r2,6
   42650:	2085883a 	add	r2,r4,r2
   42654:	10809e04 	addi	r2,r2,632
   42658:	10c00015 	stw	r3,0(r2)
		if ((c[17] & 0x61) == 0x61)
   4265c:	e0bff617 	ldw	r2,-40(fp)
   42660:	10800444 	addi	r2,r2,17
   42664:	10800003 	ldbu	r2,0(r2)
   42668:	10803fcc 	andi	r2,r2,255
   4266c:	1080184c 	andi	r2,r2,97
   42670:	10801858 	cmpnei	r2,r2,97
   42674:	10000d1e 	bne	r2,zero,426ac <edid_decode_cea+0xec4>
			cea->detailed_timing[i].stereo |= STEREO_SIDE_BY_SIDE_INTERLEAVE;
   42678:	e0fffb17 	ldw	r3,-20(fp)
   4267c:	e0bff817 	ldw	r2,-32(fp)
   42680:	100491ba 	slli	r2,r2,6
   42684:	1885883a 	add	r2,r3,r2
   42688:	10809e04 	addi	r2,r2,632
   4268c:	10800017 	ldw	r2,0(r2)
   42690:	10c01014 	ori	r3,r2,64
   42694:	e13ffb17 	ldw	r4,-20(fp)
   42698:	e0bff817 	ldw	r2,-32(fp)
   4269c:	100491ba 	slli	r2,r2,6
   426a0:	2085883a 	add	r2,r4,r2
   426a4:	10809e04 	addi	r2,r2,632
   426a8:	10c00015 	stw	r3,0(r2)

		cea->detailed_timing[i].sync = 0;
   426ac:	e0fffb17 	ldw	r3,-20(fp)
   426b0:	e0bff817 	ldw	r2,-32(fp)
   426b4:	100491ba 	slli	r2,r2,6
   426b8:	1885883a 	add	r2,r3,r2
   426bc:	10809f04 	addi	r2,r2,636
   426c0:	10000015 	stw	zero,0(r2)
        if (c[17] & 0x10) {
   426c4:	e0bff617 	ldw	r2,-40(fp)
   426c8:	10800444 	addi	r2,r2,17
   426cc:	10800003 	ldbu	r2,0(r2)
   426d0:	10803fcc 	andi	r2,r2,255
   426d4:	1080040c 	andi	r2,r2,16
   426d8:	10005626 	beq	r2,zero,42834 <edid_decode_cea+0x104c>
            if (c[17] & 0x08) {
   426dc:	e0bff617 	ldw	r2,-40(fp)
   426e0:	10800444 	addi	r2,r2,17
   426e4:	10800003 	ldbu	r2,0(r2)
   426e8:	10803fcc 	andi	r2,r2,255
   426ec:	1080020c 	andi	r2,r2,8
   426f0:	10002f26 	beq	r2,zero,427b0 <edid_decode_cea+0xfc8>
            	cea->detailed_timing[i].sync |= D_SEPERATE_SYNC;
   426f4:	e0fffb17 	ldw	r3,-20(fp)
   426f8:	e0bff817 	ldw	r2,-32(fp)
   426fc:	100491ba 	slli	r2,r2,6
   42700:	1885883a 	add	r2,r3,r2
   42704:	10809f04 	addi	r2,r2,636
   42708:	10800017 	ldw	r2,0(r2)
   4270c:	10c02014 	ori	r3,r2,128
   42710:	e13ffb17 	ldw	r4,-20(fp)
   42714:	e0bff817 	ldw	r2,-32(fp)
   42718:	100491ba 	slli	r2,r2,6
   4271c:	2085883a 	add	r2,r4,r2
   42720:	10809f04 	addi	r2,r2,636
   42724:	10c00015 	stw	r3,0(r2)
            	if (c[17] & 0x04)
   42728:	e0bff617 	ldw	r2,-40(fp)
   4272c:	10800444 	addi	r2,r2,17
   42730:	10800003 	ldbu	r2,0(r2)
   42734:	10803fcc 	andi	r2,r2,255
   42738:	1080010c 	andi	r2,r2,4
   4273c:	10000e26 	beq	r2,zero,42778 <edid_decode_cea+0xf90>
                	cea->detailed_timing[i].sync |= D_SEPERATE_VSYNC_P;
   42740:	e0fffb17 	ldw	r3,-20(fp)
   42744:	e0bff817 	ldw	r2,-32(fp)
   42748:	100491ba 	slli	r2,r2,6
   4274c:	1885883a 	add	r2,r3,r2
   42750:	10809f04 	addi	r2,r2,636
   42754:	10800017 	ldw	r2,0(r2)
   42758:	10c08014 	ori	r3,r2,512
   4275c:	e13ffb17 	ldw	r4,-20(fp)
   42760:	e0bff817 	ldw	r2,-32(fp)
   42764:	100491ba 	slli	r2,r2,6
   42768:	2085883a 	add	r2,r4,r2
   4276c:	10809f04 	addi	r2,r2,636
   42770:	10c00015 	stw	r3,0(r2)
   42774:	00008506 	br	4298c <edid_decode_cea+0x11a4>
            	else
            		cea->detailed_timing[i].sync |= D_SEPERATE_VSYNC_N;
   42778:	e0fffb17 	ldw	r3,-20(fp)
   4277c:	e0bff817 	ldw	r2,-32(fp)
   42780:	100491ba 	slli	r2,r2,6
   42784:	1885883a 	add	r2,r3,r2
   42788:	10809f04 	addi	r2,r2,636
   4278c:	10800017 	ldw	r2,0(r2)
   42790:	10c04014 	ori	r3,r2,256
   42794:	e13ffb17 	ldw	r4,-20(fp)
   42798:	e0bff817 	ldw	r2,-32(fp)
   4279c:	100491ba 	slli	r2,r2,6
   427a0:	2085883a 	add	r2,r4,r2
   427a4:	10809f04 	addi	r2,r2,636
   427a8:	10c00015 	stw	r3,0(r2)
   427ac:	00007706 	br	4298c <edid_decode_cea+0x11a4>
            } else {
            	cea->detailed_timing[i].sync |= D_COMPOSITE_SYNC;
   427b0:	e0fffb17 	ldw	r3,-20(fp)
   427b4:	e0bff817 	ldw	r2,-32(fp)
   427b8:	100491ba 	slli	r2,r2,6
   427bc:	1885883a 	add	r2,r3,r2
   427c0:	10809f04 	addi	r2,r2,636
   427c4:	10800017 	ldw	r2,0(r2)
   427c8:	10c00814 	ori	r3,r2,32
   427cc:	e13ffb17 	ldw	r4,-20(fp)
   427d0:	e0bff817 	ldw	r2,-32(fp)
   427d4:	100491ba 	slli	r2,r2,6
   427d8:	2085883a 	add	r2,r4,r2
   427dc:	10809f04 	addi	r2,r2,636
   427e0:	10c00015 	stw	r3,0(r2)
            	if (c[17] & 0x04)
   427e4:	e0bff617 	ldw	r2,-40(fp)
   427e8:	10800444 	addi	r2,r2,17
   427ec:	10800003 	ldbu	r2,0(r2)
   427f0:	10803fcc 	andi	r2,r2,255
   427f4:	1080010c 	andi	r2,r2,4
   427f8:	10006426 	beq	r2,zero,4298c <edid_decode_cea+0x11a4>
                	cea->detailed_timing[i].sync |= D_COMPOSITE_SERRATION;
   427fc:	e0fffb17 	ldw	r3,-20(fp)
   42800:	e0bff817 	ldw	r2,-32(fp)
   42804:	100491ba 	slli	r2,r2,6
   42808:	1885883a 	add	r2,r3,r2
   4280c:	10809f04 	addi	r2,r2,636
   42810:	10800017 	ldw	r2,0(r2)
   42814:	10c01014 	ori	r3,r2,64
   42818:	e13ffb17 	ldw	r4,-20(fp)
   4281c:	e0bff817 	ldw	r2,-32(fp)
   42820:	100491ba 	slli	r2,r2,6
   42824:	2085883a 	add	r2,r4,r2
   42828:	10809f04 	addi	r2,r2,636
   4282c:	10c00015 	stw	r3,0(r2)
   42830:	00005606 	br	4298c <edid_decode_cea+0x11a4>
            }
        } else {
        	if (c[17] & 0x80) {
   42834:	e0bff617 	ldw	r2,-40(fp)
   42838:	10800444 	addi	r2,r2,17
   4283c:	10800003 	ldbu	r2,0(r2)
   42840:	10803fcc 	andi	r2,r2,255
   42844:	1080201c 	xori	r2,r2,128
   42848:	10bfe004 	addi	r2,r2,-128
   4284c:	1000420e 	bge	r2,zero,42958 <edid_decode_cea+0x1170>
        		cea->detailed_timing[i].sync |= A_BIPOLAR_COMPOSITE_SYNC;
   42850:	e0fffb17 	ldw	r3,-20(fp)
   42854:	e0bff817 	ldw	r2,-32(fp)
   42858:	100491ba 	slli	r2,r2,6
   4285c:	1885883a 	add	r2,r3,r2
   42860:	10809f04 	addi	r2,r2,636
   42864:	10800017 	ldw	r2,0(r2)
   42868:	10c00094 	ori	r3,r2,2
   4286c:	e13ffb17 	ldw	r4,-20(fp)
   42870:	e0bff817 	ldw	r2,-32(fp)
   42874:	100491ba 	slli	r2,r2,6
   42878:	2085883a 	add	r2,r4,r2
   4287c:	10809f04 	addi	r2,r2,636
   42880:	10c00015 	stw	r3,0(r2)
        		if (c[17] & 0x40) {
   42884:	e0bff617 	ldw	r2,-40(fp)
   42888:	10800444 	addi	r2,r2,17
   4288c:	10800003 	ldbu	r2,0(r2)
   42890:	10803fcc 	andi	r2,r2,255
   42894:	1080100c 	andi	r2,r2,64
   42898:	10003c26 	beq	r2,zero,4298c <edid_decode_cea+0x11a4>
            		cea->detailed_timing[i].sync |= A_BIPOLAR_SERRATION;
   4289c:	e0fffb17 	ldw	r3,-20(fp)
   428a0:	e0bff817 	ldw	r2,-32(fp)
   428a4:	100491ba 	slli	r2,r2,6
   428a8:	1885883a 	add	r2,r3,r2
   428ac:	10809f04 	addi	r2,r2,636
   428b0:	10800017 	ldw	r2,0(r2)
   428b4:	10c00114 	ori	r3,r2,4
   428b8:	e13ffb17 	ldw	r4,-20(fp)
   428bc:	e0bff817 	ldw	r2,-32(fp)
   428c0:	100491ba 	slli	r2,r2,6
   428c4:	2085883a 	add	r2,r4,r2
   428c8:	10809f04 	addi	r2,r2,636
   428cc:	10c00015 	stw	r3,0(r2)
            		if (c[17] & 0x20)
   428d0:	e0bff617 	ldw	r2,-40(fp)
   428d4:	10800444 	addi	r2,r2,17
   428d8:	10800003 	ldbu	r2,0(r2)
   428dc:	10803fcc 	andi	r2,r2,255
   428e0:	1080080c 	andi	r2,r2,32
   428e4:	10000e26 	beq	r2,zero,42920 <edid_decode_cea+0x1138>
                		cea->detailed_timing[i].sync |= A_BIPOLAR_SERRATION_SYNC_RGB;
   428e8:	e0fffb17 	ldw	r3,-20(fp)
   428ec:	e0bff817 	ldw	r2,-32(fp)
   428f0:	100491ba 	slli	r2,r2,6
   428f4:	1885883a 	add	r2,r3,r2
   428f8:	10809f04 	addi	r2,r2,636
   428fc:	10800017 	ldw	r2,0(r2)
   42900:	10c00414 	ori	r3,r2,16
   42904:	e13ffb17 	ldw	r4,-20(fp)
   42908:	e0bff817 	ldw	r2,-32(fp)
   4290c:	100491ba 	slli	r2,r2,6
   42910:	2085883a 	add	r2,r4,r2
   42914:	10809f04 	addi	r2,r2,636
   42918:	10c00015 	stw	r3,0(r2)
   4291c:	00001b06 	br	4298c <edid_decode_cea+0x11a4>
            		else
                		cea->detailed_timing[i].sync |= A_BIPOLAR_SERRATION_SYNC_G;
   42920:	e0fffb17 	ldw	r3,-20(fp)
   42924:	e0bff817 	ldw	r2,-32(fp)
   42928:	100491ba 	slli	r2,r2,6
   4292c:	1885883a 	add	r2,r3,r2
   42930:	10809f04 	addi	r2,r2,636
   42934:	10800017 	ldw	r2,0(r2)
   42938:	10c00214 	ori	r3,r2,8
   4293c:	e13ffb17 	ldw	r4,-20(fp)
   42940:	e0bff817 	ldw	r2,-32(fp)
   42944:	100491ba 	slli	r2,r2,6
   42948:	2085883a 	add	r2,r4,r2
   4294c:	10809f04 	addi	r2,r2,636
   42950:	10c00015 	stw	r3,0(r2)
   42954:	00000d06 	br	4298c <edid_decode_cea+0x11a4>
        		}
        	} else {
        		cea->detailed_timing[i].sync |= A_COMPOSITE_SYNC;
   42958:	e0fffb17 	ldw	r3,-20(fp)
   4295c:	e0bff817 	ldw	r2,-32(fp)
   42960:	100491ba 	slli	r2,r2,6
   42964:	1885883a 	add	r2,r3,r2
   42968:	10809f04 	addi	r2,r2,636
   4296c:	10800017 	ldw	r2,0(r2)
   42970:	10c00054 	ori	r3,r2,1
   42974:	e13ffb17 	ldw	r4,-20(fp)
   42978:	e0bff817 	ldw	r2,-32(fp)
   4297c:	100491ba 	slli	r2,r2,6
   42980:	2085883a 	add	r2,r4,r2
   42984:	10809f04 	addi	r2,r2,636
   42988:	10c00015 	stw	r3,0(r2)

	// detail timing descriptor
	if (dtd == 0)
		return 0;

	for (i = 0; i < (int)cea->nr_dtd; ++i) {
   4298c:	e0bff817 	ldw	r2,-32(fp)
   42990:	10800044 	addi	r2,r2,1
   42994:	e0bff815 	stw	r2,-32(fp)
   42998:	e0bffb17 	ldw	r2,-20(fp)
   4299c:	10800517 	ldw	r2,20(r2)
   429a0:	e0fff817 	ldw	r3,-32(fp)
   429a4:	18bdde16 	blt	r3,r2,42120 <__alt_data_end+0xfffd6200>
        		cea->detailed_timing[i].sync |= A_COMPOSITE_SYNC;
        	}
        }
	}

	return 0;
   429a8:	0005883a 	mov	r2,zero
}
   429ac:	e037883a 	mov	sp,fp
   429b0:	dfc00117 	ldw	ra,4(sp)
   429b4:	df000017 	ldw	fp,0(sp)
   429b8:	dec00204 	addi	sp,sp,8
   429bc:	f800283a 	ret

000429c0 <edid_decode_extensions>:

int edid_decode_extensions(struct base_edid *edid, const unsigned char *edid_bin)
{
   429c0:	defff604 	addi	sp,sp,-40
   429c4:	dfc00915 	stw	ra,36(sp)
   429c8:	df000815 	stw	fp,32(sp)
   429cc:	df000804 	addi	fp,sp,32
   429d0:	e13ffb15 	stw	r4,-20(fp)
   429d4:	e17ffc15 	stw	r5,-16(fp)
	const u8 *c = edid_bin;
   429d8:	e0bffc17 	ldw	r2,-16(fp)
   429dc:	e0bffa15 	stw	r2,-24(fp)
	int i, nr_ext;

	nr_ext = (int)c[0x7e];
   429e0:	e0bffa17 	ldw	r2,-24(fp)
   429e4:	10801f84 	addi	r2,r2,126
   429e8:	10800003 	ldbu	r2,0(r2)
   429ec:	10803fcc 	andi	r2,r2,255
   429f0:	e0bff915 	stw	r2,-28(fp)

#if 1
	// for simplicity, we now support only storing 8 extension data in the edid struct
	if (nr_ext > 8)
   429f4:	e0bff917 	ldw	r2,-28(fp)
   429f8:	10800250 	cmplti	r2,r2,9
   429fc:	1000021e 	bne	r2,zero,42a08 <edid_decode_extensions+0x48>
		nr_ext = 8;
   42a00:	00800204 	movi	r2,8
   42a04:	e0bff915 	stw	r2,-28(fp)
#endif

	for (i = 0; i < nr_ext; ++i) {
   42a08:	e03ff815 	stw	zero,-32(fp)
   42a0c:	00002106 	br	42a94 <edid_decode_extensions+0xd4>

		switch (c[0]) {
   42a10:	e0bffa17 	ldw	r2,-24(fp)
   42a14:	10800003 	ldbu	r2,0(r2)
   42a18:	10803fcc 	andi	r2,r2,255
   42a1c:	10c00c20 	cmpeqi	r3,r2,48
   42a20:	1800121e 	bne	r3,zero,42a6c <edid_decode_extensions+0xac>
   42a24:	10c00c48 	cmpgei	r3,r2,49
   42a28:	1800051e 	bne	r3,zero,42a40 <edid_decode_extensions+0x80>
   42a2c:	10c000a0 	cmpeqi	r3,r2,2
   42a30:	1800071e 	bne	r3,zero,42a50 <edid_decode_extensions+0x90>
   42a34:	108000c8 	cmpgei	r2,r2,3
   42a38:	10000e26 	beq	r2,zero,42a74 <edid_decode_extensions+0xb4>
				return -1;
			break;

		case 0x10:  // 0x10 VTB-EXT (Video Timing Block Extension)
			// todo ...
			break;
   42a3c:	00001206 	br	42a88 <edid_decode_extensions+0xc8>
		nr_ext = 8;
#endif

	for (i = 0; i < nr_ext; ++i) {

		switch (c[0]) {
   42a40:	10c01820 	cmpeqi	r3,r2,96
   42a44:	18000d1e 	bne	r3,zero,42a7c <edid_decode_extensions+0xbc>
   42a48:	10801848 	cmpgei	r2,r2,97
   42a4c:	00000e06 	br	42a88 <edid_decode_extensions+0xc8>
		case 0x01:  // 0x01 (LCD Timings)
			// todo ...
			break;

		case EDID_EXT_TAG_CEA:  // 0x02 CEA-EXT (CEA-861 Series Extension)
			if (edid_decode_cea(edid, edid_bin, i) != 0)
   42a50:	e1bff817 	ldw	r6,-32(fp)
   42a54:	e17ffc17 	ldw	r5,-16(fp)
   42a58:	e13ffb17 	ldw	r4,-20(fp)
   42a5c:	00417e80 	call	417e8 <edid_decode_cea>
   42a60:	10000826 	beq	r2,zero,42a84 <edid_decode_extensions+0xc4>
				return -1;
   42a64:	00bfffc4 	movi	r2,-1
   42a68:	00000e06 	br	42aa4 <edid_decode_extensions+0xe4>
			// todo ...
			break;

		case 0x30:  // 0x30 (Color Information Type 0 Extension)
			// todo ...
			break;
   42a6c:	0001883a 	nop
   42a70:	00000506 	br	42a88 <edid_decode_extensions+0xc8>
	for (i = 0; i < nr_ext; ++i) {

		switch (c[0]) {
		case 0x01:  // 0x01 (LCD Timings)
			// todo ...
			break;
   42a74:	0001883a 	nop
   42a78:	00000306 	br	42a88 <edid_decode_extensions+0xc8>
			// todo ...
			break;

		case 0x60:  // 0x60 DPVL-EXT (Digital Packet Video Link Extension)
			// todo ...
			break;
   42a7c:	0001883a 	nop
   42a80:	00000106 	br	42a88 <edid_decode_extensions+0xc8>
			break;

		case EDID_EXT_TAG_CEA:  // 0x02 CEA-EXT (CEA-861 Series Extension)
			if (edid_decode_cea(edid, edid_bin, i) != 0)
				return -1;
			break;
   42a84:	0001883a 	nop
	// for simplicity, we now support only storing 8 extension data in the edid struct
	if (nr_ext > 8)
		nr_ext = 8;
#endif

	for (i = 0; i < nr_ext; ++i) {
   42a88:	e0bff817 	ldw	r2,-32(fp)
   42a8c:	10800044 	addi	r2,r2,1
   42a90:	e0bff815 	stw	r2,-32(fp)
   42a94:	e0fff817 	ldw	r3,-32(fp)
   42a98:	e0bff917 	ldw	r2,-28(fp)
   42a9c:	18bfdc16 	blt	r3,r2,42a10 <__alt_data_end+0xfffd6af0>
		case 0xff:  // 0xff (define by display manufacturer)
			break;
		}
	}

	return 0;
   42aa0:	0005883a 	mov	r2,zero
}
   42aa4:	e037883a 	mov	sp,fp
   42aa8:	dfc00117 	ldw	ra,4(sp)
   42aac:	df000017 	ldw	fp,0(sp)
   42ab0:	dec00204 	addi	sp,sp,8
   42ab4:	f800283a 	ret

00042ab8 <edid_decode_v14>:

int edid_decode_v14(struct base_edid *edid, const unsigned char *edid_bin)
{
   42ab8:	defff504 	addi	sp,sp,-44
   42abc:	dfc00a15 	stw	ra,40(sp)
   42ac0:	df000915 	stw	fp,36(sp)
   42ac4:	df000904 	addi	fp,sp,36
   42ac8:	e13ffe15 	stw	r4,-8(fp)
   42acc:	e17fff15 	stw	r5,-4(fp)
	static const u8 header[] = { 0x00, 0xff, 0xff, 0xff, 0xff, 0xff, 0xff, 0x00 };

	const u8 *c = edid_bin;
   42ad0:	e0bfff17 	ldw	r2,-4(fp)
   42ad4:	e0bff815 	stw	r2,-32(fp)
    u8 checksum = 0;
   42ad8:	e03ff905 	stb	zero,-28(fp)
    int i = 0, s = 0;
   42adc:	e03ffa15 	stw	zero,-24(fp)
   42ae0:	e03ffb15 	stw	zero,-20(fp)

    // header
    if (memcmp(c, header, 8) != 0)
   42ae4:	01800204 	movi	r6,8
   42ae8:	d1600104 	addi	r5,gp,-32764
   42aec:	e13ff817 	ldw	r4,-32(fp)
   42af0:	004d58c0 	call	4d58c <memcmp>
   42af4:	10000226 	beq	r2,zero,42b00 <edid_decode_v14+0x48>
        return -1;
   42af8:	00bfffc4 	movi	r2,-1
   42afc:	00102106 	br	46b84 <edid_decode_v14+0x40cc>

    // checksum
    for (s = 0; s < 127; ++s)
   42b00:	e03ffb15 	stw	zero,-20(fp)
   42b04:	00000a06 	br	42b30 <edid_decode_v14+0x78>
        checksum += c[s];
   42b08:	e0bffb17 	ldw	r2,-20(fp)
   42b0c:	e0fff817 	ldw	r3,-32(fp)
   42b10:	1885883a 	add	r2,r3,r2
   42b14:	10c00003 	ldbu	r3,0(r2)
   42b18:	e0bff903 	ldbu	r2,-28(fp)
   42b1c:	1885883a 	add	r2,r3,r2
   42b20:	e0bff905 	stb	r2,-28(fp)
    // header
    if (memcmp(c, header, 8) != 0)
        return -1;

    // checksum
    for (s = 0; s < 127; ++s)
   42b24:	e0bffb17 	ldw	r2,-20(fp)
   42b28:	10800044 	addi	r2,r2,1
   42b2c:	e0bffb15 	stw	r2,-20(fp)
   42b30:	e0bffb17 	ldw	r2,-20(fp)
   42b34:	10801fd0 	cmplti	r2,r2,127
   42b38:	103ff31e 	bne	r2,zero,42b08 <__alt_data_end+0xfffd6be8>
        checksum += c[s];

    if ((u8)(checksum + c[127]) != 0x00)
   42b3c:	e0bff817 	ldw	r2,-32(fp)
   42b40:	10801fc4 	addi	r2,r2,127
   42b44:	10c00003 	ldbu	r3,0(r2)
   42b48:	e0bff903 	ldbu	r2,-28(fp)
   42b4c:	1885883a 	add	r2,r3,r2
   42b50:	10803fcc 	andi	r2,r2,255
   42b54:	10000226 	beq	r2,zero,42b60 <edid_decode_v14+0xa8>
    	return -1;
   42b58:	00bfffc4 	movi	r2,-1
   42b5c:	00100906 	br	46b84 <edid_decode_v14+0x40cc>

    edid->checksum = c[127];
   42b60:	e0bff817 	ldw	r2,-32(fp)
   42b64:	10801fc4 	addi	r2,r2,127
   42b68:	10800003 	ldbu	r2,0(r2)
   42b6c:	10c03fcc 	andi	r3,r2,255
   42b70:	e0bffe17 	ldw	r2,-8(fp)
   42b74:	10c60915 	stw	r3,6180(r2)

    // vid/pid
    c = &edid_bin[8];
   42b78:	e0bfff17 	ldw	r2,-4(fp)
   42b7c:	10800204 	addi	r2,r2,8
   42b80:	e0bff815 	stw	r2,-32(fp)

    edid->id_mfg[0] = 0x40 + ((c[0] >> 2) & 0x1f);
   42b84:	e0bff817 	ldw	r2,-32(fp)
   42b88:	10800003 	ldbu	r2,0(r2)
   42b8c:	10803fcc 	andi	r2,r2,255
   42b90:	1004d0ba 	srli	r2,r2,2
   42b94:	108007cc 	andi	r2,r2,31
   42b98:	10801004 	addi	r2,r2,64
   42b9c:	1007883a 	mov	r3,r2
   42ba0:	e0bffe17 	ldw	r2,-8(fp)
   42ba4:	10c00005 	stb	r3,0(r2)
    edid->id_mfg[1] = 0x40 + (((c[0] << 3) | (c[1] >> 5)) & 0x1f);
   42ba8:	e0bff817 	ldw	r2,-32(fp)
   42bac:	10800003 	ldbu	r2,0(r2)
   42bb0:	10803fcc 	andi	r2,r2,255
   42bb4:	100490fa 	slli	r2,r2,3
   42bb8:	1007883a 	mov	r3,r2
   42bbc:	e0bff817 	ldw	r2,-32(fp)
   42bc0:	10800044 	addi	r2,r2,1
   42bc4:	10800003 	ldbu	r2,0(r2)
   42bc8:	10803fcc 	andi	r2,r2,255
   42bcc:	1004d17a 	srli	r2,r2,5
   42bd0:	1884b03a 	or	r2,r3,r2
   42bd4:	108007cc 	andi	r2,r2,31
   42bd8:	10801004 	addi	r2,r2,64
   42bdc:	1007883a 	mov	r3,r2
   42be0:	e0bffe17 	ldw	r2,-8(fp)
   42be4:	10c00045 	stb	r3,1(r2)
    edid->id_mfg[2] = 0x40 + (c[1] & 0x1f);
   42be8:	e0bff817 	ldw	r2,-32(fp)
   42bec:	10800044 	addi	r2,r2,1
   42bf0:	10800003 	ldbu	r2,0(r2)
   42bf4:	108007cc 	andi	r2,r2,31
   42bf8:	10801004 	addi	r2,r2,64
   42bfc:	1007883a 	mov	r3,r2
   42c00:	e0bffe17 	ldw	r2,-8(fp)
   42c04:	10c00085 	stb	r3,2(r2)
    edid->id_mfg[3] = 0;
   42c08:	e0bffe17 	ldw	r2,-8(fp)
   42c0c:	100000c5 	stb	zero,3(r2)

    c = &edid_bin[0x0a];
   42c10:	e0bfff17 	ldw	r2,-4(fp)
   42c14:	10800284 	addi	r2,r2,10
   42c18:	e0bff815 	stw	r2,-32(fp)
    edid->id_prod = (c[1] << 8) | c[0];
   42c1c:	e0bff817 	ldw	r2,-32(fp)
   42c20:	10800044 	addi	r2,r2,1
   42c24:	10800003 	ldbu	r2,0(r2)
   42c28:	10803fcc 	andi	r2,r2,255
   42c2c:	1006923a 	slli	r3,r2,8
   42c30:	e0bff817 	ldw	r2,-32(fp)
   42c34:	10800003 	ldbu	r2,0(r2)
   42c38:	10803fcc 	andi	r2,r2,255
   42c3c:	1884b03a 	or	r2,r3,r2
   42c40:	1007883a 	mov	r3,r2
   42c44:	e0bffe17 	ldw	r2,-8(fp)
   42c48:	10c00115 	stw	r3,4(r2)

    c = &edid_bin[0x0c];
   42c4c:	e0bfff17 	ldw	r2,-4(fp)
   42c50:	10800304 	addi	r2,r2,12
   42c54:	e0bff815 	stw	r2,-32(fp)
    edid->id_sn = (c[3] << 24) | (c[2] << 16) | (c[1] << 8) | c[0];
   42c58:	e0bff817 	ldw	r2,-32(fp)
   42c5c:	108000c4 	addi	r2,r2,3
   42c60:	10800003 	ldbu	r2,0(r2)
   42c64:	10803fcc 	andi	r2,r2,255
   42c68:	1006963a 	slli	r3,r2,24
   42c6c:	e0bff817 	ldw	r2,-32(fp)
   42c70:	10800084 	addi	r2,r2,2
   42c74:	10800003 	ldbu	r2,0(r2)
   42c78:	10803fcc 	andi	r2,r2,255
   42c7c:	1004943a 	slli	r2,r2,16
   42c80:	1886b03a 	or	r3,r3,r2
   42c84:	e0bff817 	ldw	r2,-32(fp)
   42c88:	10800044 	addi	r2,r2,1
   42c8c:	10800003 	ldbu	r2,0(r2)
   42c90:	10803fcc 	andi	r2,r2,255
   42c94:	1004923a 	slli	r2,r2,8
   42c98:	1886b03a 	or	r3,r3,r2
   42c9c:	e0bff817 	ldw	r2,-32(fp)
   42ca0:	10800003 	ldbu	r2,0(r2)
   42ca4:	10803fcc 	andi	r2,r2,255
   42ca8:	1884b03a 	or	r2,r3,r2
   42cac:	1007883a 	mov	r3,r2
   42cb0:	e0bffe17 	ldw	r2,-8(fp)
   42cb4:	10c00215 	stw	r3,8(r2)

    c = &edid_bin[0x10];
   42cb8:	e0bfff17 	ldw	r2,-4(fp)
   42cbc:	10800404 	addi	r2,r2,16
   42cc0:	e0bff815 	stw	r2,-32(fp)

	edid->mfg_week = 0;
   42cc4:	e0bffe17 	ldw	r2,-8(fp)
   42cc8:	10000315 	stw	zero,12(r2)
	edid->mfg_year = 0;
   42ccc:	e0bffe17 	ldw	r2,-8(fp)
   42cd0:	10000415 	stw	zero,16(r2)
	edid->model_year = 0;
   42cd4:	e0bffe17 	ldw	r2,-8(fp)
   42cd8:	10000515 	stw	zero,20(r2)

    if ((c[0] >= 0x01) && (c[0] <= 0x36))
   42cdc:	e0bff817 	ldw	r2,-32(fp)
   42ce0:	10800003 	ldbu	r2,0(r2)
   42ce4:	10803fcc 	andi	r2,r2,255
   42ce8:	10000a26 	beq	r2,zero,42d14 <edid_decode_v14+0x25c>
   42cec:	e0bff817 	ldw	r2,-32(fp)
   42cf0:	10800003 	ldbu	r2,0(r2)
   42cf4:	10803fcc 	andi	r2,r2,255
   42cf8:	10800de8 	cmpgeui	r2,r2,55
   42cfc:	1000051e 	bne	r2,zero,42d14 <edid_decode_v14+0x25c>
    	edid->mfg_week = c[0];
   42d00:	e0bff817 	ldw	r2,-32(fp)
   42d04:	10800003 	ldbu	r2,0(r2)
   42d08:	10c03fcc 	andi	r3,r2,255
   42d0c:	e0bffe17 	ldw	r2,-8(fp)
   42d10:	10c00315 	stw	r3,12(r2)

    if (c[0] == 0xff)
   42d14:	e0bff817 	ldw	r2,-32(fp)
   42d18:	10800003 	ldbu	r2,0(r2)
   42d1c:	10803fcc 	andi	r2,r2,255
   42d20:	10803fd8 	cmpnei	r2,r2,255
   42d24:	1000081e 	bne	r2,zero,42d48 <edid_decode_v14+0x290>
    	edid->model_year = 1990 + c[1];
   42d28:	e0bff817 	ldw	r2,-32(fp)
   42d2c:	10800044 	addi	r2,r2,1
   42d30:	10800003 	ldbu	r2,0(r2)
   42d34:	10803fcc 	andi	r2,r2,255
   42d38:	10c1f184 	addi	r3,r2,1990
   42d3c:	e0bffe17 	ldw	r2,-8(fp)
   42d40:	10c00515 	stw	r3,20(r2)
   42d44:	00000706 	br	42d64 <edid_decode_v14+0x2ac>
    else
    	edid->mfg_year = 1990 + c[1];
   42d48:	e0bff817 	ldw	r2,-32(fp)
   42d4c:	10800044 	addi	r2,r2,1
   42d50:	10800003 	ldbu	r2,0(r2)
   42d54:	10803fcc 	andi	r2,r2,255
   42d58:	10c1f184 	addi	r3,r2,1990
   42d5c:	e0bffe17 	ldw	r2,-8(fp)
   42d60:	10c00415 	stw	r3,16(r2)

    // edid version
    c = &edid_bin[0x12];
   42d64:	e0bfff17 	ldw	r2,-4(fp)
   42d68:	10800484 	addi	r2,r2,18
   42d6c:	e0bff815 	stw	r2,-32(fp)

    edid->ver_mj = c[0];
   42d70:	e0bff817 	ldw	r2,-32(fp)
   42d74:	10800003 	ldbu	r2,0(r2)
   42d78:	10c03fcc 	andi	r3,r2,255
   42d7c:	e0bffe17 	ldw	r2,-8(fp)
   42d80:	10c00615 	stw	r3,24(r2)
    edid->ver_mn = c[1];
   42d84:	e0bff817 	ldw	r2,-32(fp)
   42d88:	10800044 	addi	r2,r2,1
   42d8c:	10800003 	ldbu	r2,0(r2)
   42d90:	10c03fcc 	andi	r3,r2,255
   42d94:	e0bffe17 	ldw	r2,-8(fp)
   42d98:	10c00715 	stw	r3,28(r2)

    // basic display parameters & features
    c = &edid_bin[0x14];
   42d9c:	e0bfff17 	ldw	r2,-4(fp)
   42da0:	10800504 	addi	r2,r2,20
   42da4:	e0bff815 	stw	r2,-32(fp)

    if (*c & 0x80) {
   42da8:	e0bff817 	ldw	r2,-32(fp)
   42dac:	10800003 	ldbu	r2,0(r2)
   42db0:	10803fcc 	andi	r2,r2,255
   42db4:	1080201c 	xori	r2,r2,128
   42db8:	10bfe004 	addi	r2,r2,-128
   42dbc:	10005d0e 	bge	r2,zero,42f34 <edid_decode_v14+0x47c>
        edid->input.digital_if = 1;
   42dc0:	e0bffe17 	ldw	r2,-8(fp)
   42dc4:	00c00044 	movi	r3,1
   42dc8:	10c00815 	stw	r3,32(r2)

        switch ((*c >> 4) & 0x7) {
   42dcc:	e0bff817 	ldw	r2,-32(fp)
   42dd0:	10800003 	ldbu	r2,0(r2)
   42dd4:	10803fcc 	andi	r2,r2,255
   42dd8:	1004d13a 	srli	r2,r2,4
   42ddc:	10803fcc 	andi	r2,r2,255
   42de0:	108001cc 	andi	r2,r2,7
   42de4:	10c001e8 	cmpgeui	r3,r2,7
   42de8:	1800251e 	bne	r3,zero,42e80 <edid_decode_v14+0x3c8>
   42dec:	100690ba 	slli	r3,r2,2
   42df0:	00800134 	movhi	r2,4
   42df4:	108b8104 	addi	r2,r2,11780
   42df8:	1885883a 	add	r2,r3,r2
   42dfc:	10800017 	ldw	r2,0(r2)
   42e00:	1000683a 	jmp	r2
   42e04:	00042e80 	call	42e8 <__alt_mem_onchip_memory2-0x3bd18>
   42e08:	00042e20 	cmpeqi	zero,zero,4280
   42e0c:	00042e30 	cmpltui	zero,zero,4280
   42e10:	00042e40 	call	42e4 <__alt_mem_onchip_memory2-0x3bd1c>
   42e14:	00042e50 	cmplti	zero,zero,4281
   42e18:	00042e60 	cmpeqi	zero,zero,4281
   42e1c:	00042e70 	cmpltui	zero,zero,4281
        case 1:
            edid->input.digital.depth = VID_6BITS;
   42e20:	e0bffe17 	ldw	r2,-8(fp)
   42e24:	00c00044 	movi	r3,1
   42e28:	10c00915 	stw	r3,36(r2)
            break;
   42e2c:	00001706 	br	42e8c <edid_decode_v14+0x3d4>
        case 2:
            edid->input.digital.depth = VID_8BITS;
   42e30:	e0bffe17 	ldw	r2,-8(fp)
   42e34:	00c00084 	movi	r3,2
   42e38:	10c00915 	stw	r3,36(r2)
            break;
   42e3c:	00001306 	br	42e8c <edid_decode_v14+0x3d4>
        case 3:
            edid->input.digital.depth = VID_10BITS;
   42e40:	e0bffe17 	ldw	r2,-8(fp)
   42e44:	00c000c4 	movi	r3,3
   42e48:	10c00915 	stw	r3,36(r2)
            break;
   42e4c:	00000f06 	br	42e8c <edid_decode_v14+0x3d4>
        case 4:
            edid->input.digital.depth = VID_12BITS;
   42e50:	e0bffe17 	ldw	r2,-8(fp)
   42e54:	00c00104 	movi	r3,4
   42e58:	10c00915 	stw	r3,36(r2)
            break;
   42e5c:	00000b06 	br	42e8c <edid_decode_v14+0x3d4>
        case 5:
            edid->input.digital.depth = VID_14BITS;
   42e60:	e0bffe17 	ldw	r2,-8(fp)
   42e64:	00c00144 	movi	r3,5
   42e68:	10c00915 	stw	r3,36(r2)
            break;
   42e6c:	00000706 	br	42e8c <edid_decode_v14+0x3d4>
        case 6:
            edid->input.digital.depth = VID_16BITS;
   42e70:	e0bffe17 	ldw	r2,-8(fp)
   42e74:	00c00184 	movi	r3,6
   42e78:	10c00915 	stw	r3,36(r2)
            break;
   42e7c:	00000306 	br	42e8c <edid_decode_v14+0x3d4>
        case 0:
        default:
            edid->input.digital.depth = VID_NOT_DEFINED;
   42e80:	e0bffe17 	ldw	r2,-8(fp)
   42e84:	10000915 	stw	zero,36(r2)
            break;
   42e88:	0001883a 	nop
        }

        switch (*c & 0xf) {
   42e8c:	e0bff817 	ldw	r2,-32(fp)
   42e90:	10800003 	ldbu	r2,0(r2)
   42e94:	10803fcc 	andi	r2,r2,255
   42e98:	108003cc 	andi	r2,r2,15
   42e9c:	10c001a8 	cmpgeui	r3,r2,6
   42ea0:	1800201e 	bne	r3,zero,42f24 <edid_decode_v14+0x46c>
   42ea4:	100690ba 	slli	r3,r2,2
   42ea8:	00800134 	movhi	r2,4
   42eac:	108baf04 	addi	r2,r2,11964
   42eb0:	1885883a 	add	r2,r3,r2
   42eb4:	10800017 	ldw	r2,0(r2)
   42eb8:	1000683a 	jmp	r2
   42ebc:	00042f24 	muli	zero,zero,4284
   42ec0:	00042ed4 	movui	zero,4283
   42ec4:	00042ee4 	muli	zero,zero,4283
   42ec8:	00042ef4 	movhi	zero,4283
   42ecc:	00042f04 	movi	zero,4284
   42ed0:	00042f14 	movui	zero,4284
        case 1:
            edid->input.digital.interface = VII_DVI;
   42ed4:	e0bffe17 	ldw	r2,-8(fp)
   42ed8:	00c00044 	movi	r3,1
   42edc:	10c00a15 	stw	r3,40(r2)
            break;
   42ee0:	00006c06 	br	43094 <edid_decode_v14+0x5dc>
        case 2:
            edid->input.digital.interface = VII_HDMI_A;
   42ee4:	e0bffe17 	ldw	r2,-8(fp)
   42ee8:	00c00084 	movi	r3,2
   42eec:	10c00a15 	stw	r3,40(r2)
            break;
   42ef0:	00006806 	br	43094 <edid_decode_v14+0x5dc>
        case 3:
            edid->input.digital.interface = VII_HDMI_B;
   42ef4:	e0bffe17 	ldw	r2,-8(fp)
   42ef8:	00c000c4 	movi	r3,3
   42efc:	10c00a15 	stw	r3,40(r2)
            break;
   42f00:	00006406 	br	43094 <edid_decode_v14+0x5dc>
        case 4:
            edid->input.digital.interface = VII_MDDI;
   42f04:	e0bffe17 	ldw	r2,-8(fp)
   42f08:	00c00104 	movi	r3,4
   42f0c:	10c00a15 	stw	r3,40(r2)
            break;
   42f10:	00006006 	br	43094 <edid_decode_v14+0x5dc>
        case 5:
            edid->input.digital.interface = VII_DISPLAYPORT;
   42f14:	e0bffe17 	ldw	r2,-8(fp)
   42f18:	00c00144 	movi	r3,5
   42f1c:	10c00a15 	stw	r3,40(r2)
            break;
   42f20:	00005c06 	br	43094 <edid_decode_v14+0x5dc>
        case 0:
        default:
            edid->input.digital.interface = VII_NOT_DEFINED;
   42f24:	e0bffe17 	ldw	r2,-8(fp)
   42f28:	10000a15 	stw	zero,40(r2)
            break;
   42f2c:	0001883a 	nop
   42f30:	00005806 	br	43094 <edid_decode_v14+0x5dc>
        }

    } else {

        edid->input.digital_if = 0;
   42f34:	e0bffe17 	ldw	r2,-8(fp)
   42f38:	10000815 	stw	zero,32(r2)

        switch ((*c >> 5) & 0x3) {
   42f3c:	e0bff817 	ldw	r2,-32(fp)
   42f40:	10800003 	ldbu	r2,0(r2)
   42f44:	10803fcc 	andi	r2,r2,255
   42f48:	1004d17a 	srli	r2,r2,5
   42f4c:	10803fcc 	andi	r2,r2,255
   42f50:	108000cc 	andi	r2,r2,3
   42f54:	10c00060 	cmpeqi	r3,r2,1
   42f58:	18000c1e 	bne	r3,zero,42f8c <edid_decode_v14+0x4d4>
   42f5c:	10c00088 	cmpgei	r3,r2,2
   42f60:	1800021e 	bne	r3,zero,42f6c <edid_decode_v14+0x4b4>
   42f64:	10000626 	beq	r2,zero,42f80 <edid_decode_v14+0x4c8>
   42f68:	00001406 	br	42fbc <edid_decode_v14+0x504>
   42f6c:	10c000a0 	cmpeqi	r3,r2,2
   42f70:	18000a1e 	bne	r3,zero,42f9c <edid_decode_v14+0x4e4>
   42f74:	108000e0 	cmpeqi	r2,r2,3
   42f78:	10000c1e 	bne	r2,zero,42fac <edid_decode_v14+0x4f4>
   42f7c:	00000f06 	br	42fbc <edid_decode_v14+0x504>
        case 0:
            edid->input.analog.level = VIL_0P700_0P300_1P000;
   42f80:	e0bffe17 	ldw	r2,-8(fp)
   42f84:	10000915 	stw	zero,36(r2)
            break;
   42f88:	00000c06 	br	42fbc <edid_decode_v14+0x504>
        case 1:
            edid->input.analog.level = VIL_0P714_0P286_1P000;
   42f8c:	e0bffe17 	ldw	r2,-8(fp)
   42f90:	00c00044 	movi	r3,1
   42f94:	10c00915 	stw	r3,36(r2)
            break;
   42f98:	00000806 	br	42fbc <edid_decode_v14+0x504>
        case 2:
            edid->input.analog.level = VIL_1P000_0P400_1P400;
   42f9c:	e0bffe17 	ldw	r2,-8(fp)
   42fa0:	00c00084 	movi	r3,2
   42fa4:	10c00915 	stw	r3,36(r2)
            break;
   42fa8:	00000406 	br	42fbc <edid_decode_v14+0x504>
        case 3:
            edid->input.analog.level = VIL_0P700_0P000_0P700;
   42fac:	e0bffe17 	ldw	r2,-8(fp)
   42fb0:	00c000c4 	movi	r3,3
   42fb4:	10c00915 	stw	r3,36(r2)
            break;
   42fb8:	0001883a 	nop
        }

        if (*c & 0x10)
   42fbc:	e0bff817 	ldw	r2,-32(fp)
   42fc0:	10800003 	ldbu	r2,0(r2)
   42fc4:	10803fcc 	andi	r2,r2,255
   42fc8:	1080040c 	andi	r2,r2,16
   42fcc:	10000426 	beq	r2,zero,42fe0 <edid_decode_v14+0x528>
            edid->input.analog.setup = VIS_BLANK_TO_BLACK_PEDESTAL;
   42fd0:	e0bffe17 	ldw	r2,-8(fp)
   42fd4:	00c00044 	movi	r3,1
   42fd8:	10c00a15 	stw	r3,40(r2)
   42fdc:	00000206 	br	42fe8 <edid_decode_v14+0x530>
        else
            edid->input.analog.setup = VIS_BLANK_LEVEL_EQ_BLACK_LEVEL;
   42fe0:	e0bffe17 	ldw	r2,-8(fp)
   42fe4:	10000a15 	stw	zero,40(r2)

        edid->input.analog.sync_type = 0;
   42fe8:	e0bffe17 	ldw	r2,-8(fp)
   42fec:	10000b15 	stw	zero,44(r2)
        if (*c & 0x08)
   42ff0:	e0bff817 	ldw	r2,-32(fp)
   42ff4:	10800003 	ldbu	r2,0(r2)
   42ff8:	10803fcc 	andi	r2,r2,255
   42ffc:	1080020c 	andi	r2,r2,8
   43000:	10000526 	beq	r2,zero,43018 <edid_decode_v14+0x560>
        	edid->input.analog.sync_type |= VIS_SEPERATE_H_V_SYNC;
   43004:	e0bffe17 	ldw	r2,-8(fp)
   43008:	10800b17 	ldw	r2,44(r2)
   4300c:	10c00054 	ori	r3,r2,1
   43010:	e0bffe17 	ldw	r2,-8(fp)
   43014:	10c00b15 	stw	r3,44(r2)
        if (*c & 0x04)
   43018:	e0bff817 	ldw	r2,-32(fp)
   4301c:	10800003 	ldbu	r2,0(r2)
   43020:	10803fcc 	andi	r2,r2,255
   43024:	1080010c 	andi	r2,r2,4
   43028:	10000526 	beq	r2,zero,43040 <edid_decode_v14+0x588>
        	edid->input.analog.sync_type |= VIS_COMPOSITE_H_SYNC;
   4302c:	e0bffe17 	ldw	r2,-8(fp)
   43030:	10800b17 	ldw	r2,44(r2)
   43034:	10c00094 	ori	r3,r2,2
   43038:	e0bffe17 	ldw	r2,-8(fp)
   4303c:	10c00b15 	stw	r3,44(r2)
        if (*c & 0x02)
   43040:	e0bff817 	ldw	r2,-32(fp)
   43044:	10800003 	ldbu	r2,0(r2)
   43048:	10803fcc 	andi	r2,r2,255
   4304c:	1080008c 	andi	r2,r2,2
   43050:	10000526 	beq	r2,zero,43068 <edid_decode_v14+0x5b0>
        	edid->input.analog.sync_type |= VIS_COMPOSITE_G_VIDEO;
   43054:	e0bffe17 	ldw	r2,-8(fp)
   43058:	10800b17 	ldw	r2,44(r2)
   4305c:	10c00114 	ori	r3,r2,4
   43060:	e0bffe17 	ldw	r2,-8(fp)
   43064:	10c00b15 	stw	r3,44(r2)

        if (*c & 0x01)
   43068:	e0bff817 	ldw	r2,-32(fp)
   4306c:	10800003 	ldbu	r2,0(r2)
   43070:	10803fcc 	andi	r2,r2,255
   43074:	1080004c 	andi	r2,r2,1
   43078:	10000426 	beq	r2,zero,4308c <edid_decode_v14+0x5d4>
        	edid->input.analog.serrations = VISR_VSYNC;
   4307c:	e0bffe17 	ldw	r2,-8(fp)
   43080:	00c00044 	movi	r3,1
   43084:	10c00c15 	stw	r3,48(r2)
   43088:	00000206 	br	43094 <edid_decode_v14+0x5dc>
        else
        	edid->input.analog.serrations = 0;
   4308c:	e0bffe17 	ldw	r2,-8(fp)
   43090:	10000c15 	stw	zero,48(r2)
    }

    c = &edid_bin[15];
   43094:	e0bfff17 	ldw	r2,-4(fp)
   43098:	108003c4 	addi	r2,r2,15
   4309c:	e0bff815 	stw	r2,-32(fp)

    edid->screen.size.defined = 0;
   430a0:	e0bffe17 	ldw	r2,-8(fp)
   430a4:	10000d15 	stw	zero,52(r2)
    edid->screen.size.horizontal = 0;
   430a8:	e0bffe17 	ldw	r2,-8(fp)
   430ac:	10000e15 	stw	zero,56(r2)
    edid->screen.size.vertical = 0;
   430b0:	e0bffe17 	ldw	r2,-8(fp)
   430b4:	10000f15 	stw	zero,60(r2)
    edid->screen.aspect.defined = 0;
   430b8:	e0bffe17 	ldw	r2,-8(fp)
   430bc:	10000d15 	stw	zero,52(r2)
    edid->screen.aspect.landscape = 0.0f;
   430c0:	e0bffe17 	ldw	r2,-8(fp)
   430c4:	10000e15 	stw	zero,56(r2)
    edid->screen.aspect.portrait = 0.0f;
   430c8:	e0bffe17 	ldw	r2,-8(fp)
   430cc:	10000f15 	stw	zero,60(r2)

    if (c[0] != 0) {
   430d0:	e0bff817 	ldw	r2,-32(fp)
   430d4:	10800003 	ldbu	r2,0(r2)
   430d8:	10803fcc 	andi	r2,r2,255
   430dc:	10002b26 	beq	r2,zero,4318c <edid_decode_v14+0x6d4>
        if (c[1] != 0) {
   430e0:	e0bff817 	ldw	r2,-32(fp)
   430e4:	10800044 	addi	r2,r2,1
   430e8:	10800003 	ldbu	r2,0(r2)
   430ec:	10803fcc 	andi	r2,r2,255
   430f0:	10000f26 	beq	r2,zero,43130 <edid_decode_v14+0x678>
        	edid->screen.size.defined = 1;
   430f4:	e0bffe17 	ldw	r2,-8(fp)
   430f8:	00c00044 	movi	r3,1
   430fc:	10c00d15 	stw	r3,52(r2)
        	edid->screen.size.horizontal = c[0];
   43100:	e0bff817 	ldw	r2,-32(fp)
   43104:	10800003 	ldbu	r2,0(r2)
   43108:	10c03fcc 	andi	r3,r2,255
   4310c:	e0bffe17 	ldw	r2,-8(fp)
   43110:	10c00e15 	stw	r3,56(r2)
        	edid->screen.size.vertical = c[1];
   43114:	e0bff817 	ldw	r2,-32(fp)
   43118:	10800044 	addi	r2,r2,1
   4311c:	10800003 	ldbu	r2,0(r2)
   43120:	10c03fcc 	andi	r3,r2,255
   43124:	e0bffe17 	ldw	r2,-8(fp)
   43128:	10c00f15 	stw	r3,60(r2)
   4312c:	00003206 	br	431f8 <edid_decode_v14+0x740>
        } else {
        	edid->screen.aspect.defined = 1;
   43130:	e0bffe17 	ldw	r2,-8(fp)
   43134:	00c00044 	movi	r3,1
   43138:	10c00d15 	stw	r3,52(r2)
        	edid->screen.aspect.landscape = ((float)c[0] + 99.0f) * 0.01f;
   4313c:	e0bff817 	ldw	r2,-32(fp)
   43140:	10800003 	ldbu	r2,0(r2)
   43144:	10803fcc 	andi	r2,r2,255
   43148:	1009883a 	mov	r4,r2
   4314c:	004c4c00 	call	4c4c0 <__floatunsisf>
   43150:	1007883a 	mov	r3,r2
   43154:	0150b1b4 	movhi	r5,17094
   43158:	1809883a 	mov	r4,r3
   4315c:	004b2d80 	call	4b2d8 <__addsf3>
   43160:	1007883a 	mov	r3,r2
   43164:	1805883a 	mov	r2,r3
   43168:	014f0934 	movhi	r5,15396
   4316c:	2975c284 	addi	r5,r5,-10486
   43170:	1009883a 	mov	r4,r2
   43174:	004bbe00 	call	4bbe0 <__mulsf3>
   43178:	1009883a 	mov	r4,r2
   4317c:	2007883a 	mov	r3,r4
   43180:	e0bffe17 	ldw	r2,-8(fp)
   43184:	10c00e15 	stw	r3,56(r2)
   43188:	00001b06 	br	431f8 <edid_decode_v14+0x740>
        }
    } else if (c[1] != 0) {
   4318c:	e0bff817 	ldw	r2,-32(fp)
   43190:	10800044 	addi	r2,r2,1
   43194:	10800003 	ldbu	r2,0(r2)
   43198:	10803fcc 	andi	r2,r2,255
   4319c:	10001626 	beq	r2,zero,431f8 <edid_decode_v14+0x740>
    	edid->screen.aspect.defined = 2;
   431a0:	e0bffe17 	ldw	r2,-8(fp)
   431a4:	00c00084 	movi	r3,2
   431a8:	10c00d15 	stw	r3,52(r2)
    	edid->screen.aspect.portrait = 100.0f / ((float)c[1] + 99.0f);
   431ac:	e0bff817 	ldw	r2,-32(fp)
   431b0:	10800044 	addi	r2,r2,1
   431b4:	10800003 	ldbu	r2,0(r2)
   431b8:	10803fcc 	andi	r2,r2,255
   431bc:	1009883a 	mov	r4,r2
   431c0:	004c4c00 	call	4c4c0 <__floatunsisf>
   431c4:	1007883a 	mov	r3,r2
   431c8:	0150b1b4 	movhi	r5,17094
   431cc:	1809883a 	mov	r4,r3
   431d0:	004b2d80 	call	4b2d8 <__addsf3>
   431d4:	1007883a 	mov	r3,r2
   431d8:	1805883a 	mov	r2,r3
   431dc:	100b883a 	mov	r5,r2
   431e0:	0110b234 	movhi	r4,17096
   431e4:	004b7a00 	call	4b7a0 <__divsf3>
   431e8:	1009883a 	mov	r4,r2
   431ec:	2007883a 	mov	r3,r4
   431f0:	e0bffe17 	ldw	r2,-8(fp)
   431f4:	10c00f15 	stw	r3,60(r2)
    }

    // gamma
    c = &edid_bin[17];
   431f8:	e0bfff17 	ldw	r2,-4(fp)
   431fc:	10800444 	addi	r2,r2,17
   43200:	e0bff815 	stw	r2,-32(fp)

    if (*c < 0xff)
   43204:	e0bff817 	ldw	r2,-32(fp)
   43208:	10800003 	ldbu	r2,0(r2)
   4320c:	10803fcc 	andi	r2,r2,255
   43210:	10803fe0 	cmpeqi	r2,r2,255
   43214:	1000131e 	bne	r2,zero,43264 <edid_decode_v14+0x7ac>
        edid->gamma = ((float)(*c) * 100.0f) - 100.0f;
   43218:	e0bff817 	ldw	r2,-32(fp)
   4321c:	10800003 	ldbu	r2,0(r2)
   43220:	10803fcc 	andi	r2,r2,255
   43224:	1009883a 	mov	r4,r2
   43228:	004c4c00 	call	4c4c0 <__floatunsisf>
   4322c:	1007883a 	mov	r3,r2
   43230:	0150b234 	movhi	r5,17096
   43234:	1809883a 	mov	r4,r3
   43238:	004bbe00 	call	4bbe0 <__mulsf3>
   4323c:	1007883a 	mov	r3,r2
   43240:	1805883a 	mov	r2,r3
   43244:	0150b234 	movhi	r5,17096
   43248:	1009883a 	mov	r4,r2
   4324c:	004bfdc0 	call	4bfdc <__subsf3>
   43250:	1009883a 	mov	r4,r2
   43254:	2007883a 	mov	r3,r4
   43258:	e0bffe17 	ldw	r2,-8(fp)
   4325c:	10c01015 	stw	r3,64(r2)
   43260:	00000206 	br	4326c <edid_decode_v14+0x7b4>
    else
        edid->gamma = 0.0f;  // defined in an extension block
   43264:	e0bffe17 	ldw	r2,-8(fp)
   43268:	10001015 	stw	zero,64(r2)

    // feature
    c = &edid_bin[18];
   4326c:	e0bfff17 	ldw	r2,-4(fp)
   43270:	10800484 	addi	r2,r2,18
   43274:	e0bff815 	stw	r2,-32(fp)

    edid->feature = 0;
   43278:	e0bffe17 	ldw	r2,-8(fp)
   4327c:	10001115 	stw	zero,68(r2)
    if (*c & 0x80)
   43280:	e0bff817 	ldw	r2,-32(fp)
   43284:	10800003 	ldbu	r2,0(r2)
   43288:	10803fcc 	andi	r2,r2,255
   4328c:	1080201c 	xori	r2,r2,128
   43290:	10bfe004 	addi	r2,r2,-128
   43294:	1000050e 	bge	r2,zero,432ac <edid_decode_v14+0x7f4>
    	edid->feature |= FS_PM_STANDBY;
   43298:	e0bffe17 	ldw	r2,-8(fp)
   4329c:	10801117 	ldw	r2,68(r2)
   432a0:	10c00054 	ori	r3,r2,1
   432a4:	e0bffe17 	ldw	r2,-8(fp)
   432a8:	10c01115 	stw	r3,68(r2)
    if (*c & 0x40)
   432ac:	e0bff817 	ldw	r2,-32(fp)
   432b0:	10800003 	ldbu	r2,0(r2)
   432b4:	10803fcc 	andi	r2,r2,255
   432b8:	1080100c 	andi	r2,r2,64
   432bc:	10000526 	beq	r2,zero,432d4 <edid_decode_v14+0x81c>
    	edid->feature |= FS_PM_SUSPEND;
   432c0:	e0bffe17 	ldw	r2,-8(fp)
   432c4:	10801117 	ldw	r2,68(r2)
   432c8:	10c00094 	ori	r3,r2,2
   432cc:	e0bffe17 	ldw	r2,-8(fp)
   432d0:	10c01115 	stw	r3,68(r2)
    if (*c & 0x20)
   432d4:	e0bff817 	ldw	r2,-32(fp)
   432d8:	10800003 	ldbu	r2,0(r2)
   432dc:	10803fcc 	andi	r2,r2,255
   432e0:	1080080c 	andi	r2,r2,32
   432e4:	10000526 	beq	r2,zero,432fc <edid_decode_v14+0x844>
    	edid->feature |= FS_PM_LOW_POWER_ACTIVE_OFF;
   432e8:	e0bffe17 	ldw	r2,-8(fp)
   432ec:	10801117 	ldw	r2,68(r2)
   432f0:	10c00114 	ori	r3,r2,4
   432f4:	e0bffe17 	ldw	r2,-8(fp)
   432f8:	10c01115 	stw	r3,68(r2)

    if (edid->input.digital_if) {
   432fc:	e0bffe17 	ldw	r2,-8(fp)
   43300:	10800817 	ldw	r2,32(r2)
   43304:	10002a26 	beq	r2,zero,433b0 <edid_decode_v14+0x8f8>
        switch ((*c >> 3) & 0x03) {
   43308:	e0bff817 	ldw	r2,-32(fp)
   4330c:	10800003 	ldbu	r2,0(r2)
   43310:	10803fcc 	andi	r2,r2,255
   43314:	1004d0fa 	srli	r2,r2,3
   43318:	10803fcc 	andi	r2,r2,255
   4331c:	108000cc 	andi	r2,r2,3
   43320:	10c00060 	cmpeqi	r3,r2,1
   43324:	18000f1e 	bne	r3,zero,43364 <edid_decode_v14+0x8ac>
   43328:	10c00088 	cmpgei	r3,r2,2
   4332c:	1800021e 	bne	r3,zero,43338 <edid_decode_v14+0x880>
   43330:	10000626 	beq	r2,zero,4334c <edid_decode_v14+0x894>
   43334:	00003b06 	br	43424 <edid_decode_v14+0x96c>
   43338:	10c000a0 	cmpeqi	r3,r2,2
   4333c:	18000f1e 	bne	r3,zero,4337c <edid_decode_v14+0x8c4>
   43340:	108000e0 	cmpeqi	r2,r2,3
   43344:	1000131e 	bne	r2,zero,43394 <edid_decode_v14+0x8dc>
   43348:	00003606 	br	43424 <edid_decode_v14+0x96c>
        case 0:
        	edid->feature |= FS_CEF_RGB444;
   4334c:	e0bffe17 	ldw	r2,-8(fp)
   43350:	10801117 	ldw	r2,68(r2)
   43354:	10c01014 	ori	r3,r2,64
   43358:	e0bffe17 	ldw	r2,-8(fp)
   4335c:	10c01115 	stw	r3,68(r2)
            break;
   43360:	00003006 	br	43424 <edid_decode_v14+0x96c>
        case 1:
        	edid->feature |= (FS_CEF_RGB444 | FS_CEF_YCBCR444);
   43364:	e0bffe17 	ldw	r2,-8(fp)
   43368:	10801117 	ldw	r2,68(r2)
   4336c:	10c03014 	ori	r3,r2,192
   43370:	e0bffe17 	ldw	r2,-8(fp)
   43374:	10c01115 	stw	r3,68(r2)
            break;
   43378:	00002a06 	br	43424 <edid_decode_v14+0x96c>
        case 2:
        	edid->feature |= (FS_CEF_RGB444 | FS_CEF_YCBCR422);
   4337c:	e0bffe17 	ldw	r2,-8(fp)
   43380:	10801117 	ldw	r2,68(r2)
   43384:	10c05014 	ori	r3,r2,320
   43388:	e0bffe17 	ldw	r2,-8(fp)
   4338c:	10c01115 	stw	r3,68(r2)
            break;
   43390:	00002406 	br	43424 <edid_decode_v14+0x96c>
        case 3:
        	edid->feature |= (FS_CEF_RGB444 | FS_CEF_YCBCR444 | FS_CEF_YCBCR422);
   43394:	e0bffe17 	ldw	r2,-8(fp)
   43398:	10801117 	ldw	r2,68(r2)
   4339c:	10c07014 	ori	r3,r2,448
   433a0:	e0bffe17 	ldw	r2,-8(fp)
   433a4:	10c01115 	stw	r3,68(r2)
            break;
   433a8:	0001883a 	nop
   433ac:	00001d06 	br	43424 <edid_decode_v14+0x96c>
        }
    } else {
        switch ((*c >> 3) & 0x03) {
   433b0:	e0bff817 	ldw	r2,-32(fp)
   433b4:	10800003 	ldbu	r2,0(r2)
   433b8:	10803fcc 	andi	r2,r2,255
   433bc:	1004d0fa 	srli	r2,r2,3
   433c0:	10803fcc 	andi	r2,r2,255
   433c4:	108000cc 	andi	r2,r2,3
   433c8:	10c00060 	cmpeqi	r3,r2,1
   433cc:	1800091e 	bne	r3,zero,433f4 <edid_decode_v14+0x93c>
   433d0:	10c000a0 	cmpeqi	r3,r2,2
   433d4:	18000d1e 	bne	r3,zero,4340c <edid_decode_v14+0x954>
   433d8:	1000121e 	bne	r2,zero,43424 <edid_decode_v14+0x96c>
        case 0:
        	edid->feature |= FS_DCT_MONO_GRAY;
   433dc:	e0bffe17 	ldw	r2,-8(fp)
   433e0:	10801117 	ldw	r2,68(r2)
   433e4:	10c00214 	ori	r3,r2,8
   433e8:	e0bffe17 	ldw	r2,-8(fp)
   433ec:	10c01115 	stw	r3,68(r2)
            break;
   433f0:	00000c06 	br	43424 <edid_decode_v14+0x96c>
        case 1:
        	edid->feature |= FS_DCT_RGB;
   433f4:	e0bffe17 	ldw	r2,-8(fp)
   433f8:	10801117 	ldw	r2,68(r2)
   433fc:	10c00414 	ori	r3,r2,16
   43400:	e0bffe17 	ldw	r2,-8(fp)
   43404:	10c01115 	stw	r3,68(r2)
            break;
   43408:	00000606 	br	43424 <edid_decode_v14+0x96c>
        case 2:
        	edid->feature |= FS_DCT_NON_RGB;
   4340c:	e0bffe17 	ldw	r2,-8(fp)
   43410:	10801117 	ldw	r2,68(r2)
   43414:	10c00814 	ori	r3,r2,32
   43418:	e0bffe17 	ldw	r2,-8(fp)
   4341c:	10c01115 	stw	r3,68(r2)
            break;
   43420:	0001883a 	nop
        }
    }

    if (*c & 0x04)
   43424:	e0bff817 	ldw	r2,-32(fp)
   43428:	10800003 	ldbu	r2,0(r2)
   4342c:	10803fcc 	andi	r2,r2,255
   43430:	1080010c 	andi	r2,r2,4
   43434:	10000526 	beq	r2,zero,4344c <edid_decode_v14+0x994>
    	edid->feature |= FS_OF_SRGB_DEFAULT;
   43438:	e0bffe17 	ldw	r2,-8(fp)
   4343c:	10801117 	ldw	r2,68(r2)
   43440:	10c08014 	ori	r3,r2,512
   43444:	e0bffe17 	ldw	r2,-8(fp)
   43448:	10c01115 	stw	r3,68(r2)
    if (*c & 0x02)
   4344c:	e0bff817 	ldw	r2,-32(fp)
   43450:	10800003 	ldbu	r2,0(r2)
   43454:	10803fcc 	andi	r2,r2,255
   43458:	1080008c 	andi	r2,r2,2
   4345c:	10000526 	beq	r2,zero,43474 <edid_decode_v14+0x9bc>
    	edid->feature |= FS_OF_NATIVE_PREFERRED;
   43460:	e0bffe17 	ldw	r2,-8(fp)
   43464:	10801117 	ldw	r2,68(r2)
   43468:	10c10014 	ori	r3,r2,1024
   4346c:	e0bffe17 	ldw	r2,-8(fp)
   43470:	10c01115 	stw	r3,68(r2)
    if (*c & 0x01)
   43474:	e0bff817 	ldw	r2,-32(fp)
   43478:	10800003 	ldbu	r2,0(r2)
   4347c:	10803fcc 	andi	r2,r2,255
   43480:	1080004c 	andi	r2,r2,1
   43484:	10000526 	beq	r2,zero,4349c <edid_decode_v14+0x9e4>
    	edid->feature |= FS_OF_CONTINUOUS_FREQ;
   43488:	e0bffe17 	ldw	r2,-8(fp)
   4348c:	10801117 	ldw	r2,68(r2)
   43490:	10c20014 	ori	r3,r2,2048
   43494:	e0bffe17 	ldw	r2,-8(fp)
   43498:	10c01115 	stw	r3,68(r2)

    // chromaticity coordinates
    c = &edid_bin[19];
   4349c:	e0bfff17 	ldw	r2,-4(fp)
   434a0:	108004c4 	addi	r2,r2,19
   434a4:	e0bff815 	stw	r2,-32(fp)

    edid->chromaticity.r_x = ((u16)c[2] << 2) | (((u16)c[0] >> 6) & 0x3);
   434a8:	e0bff817 	ldw	r2,-32(fp)
   434ac:	10800084 	addi	r2,r2,2
   434b0:	10800003 	ldbu	r2,0(r2)
   434b4:	10803fcc 	andi	r2,r2,255
   434b8:	1085883a 	add	r2,r2,r2
   434bc:	1085883a 	add	r2,r2,r2
   434c0:	1007883a 	mov	r3,r2
   434c4:	e0bff817 	ldw	r2,-32(fp)
   434c8:	10800003 	ldbu	r2,0(r2)
   434cc:	10803fcc 	andi	r2,r2,255
   434d0:	1004d1ba 	srli	r2,r2,6
   434d4:	10803fcc 	andi	r2,r2,255
   434d8:	108000cc 	andi	r2,r2,3
   434dc:	1886b03a 	or	r3,r3,r2
   434e0:	e0bffe17 	ldw	r2,-8(fp)
   434e4:	10c01215 	stw	r3,72(r2)
    edid->chromaticity.r_y = ((u16)c[3] << 2) | (((u16)c[0] >> 4) & 0x3);
   434e8:	e0bff817 	ldw	r2,-32(fp)
   434ec:	108000c4 	addi	r2,r2,3
   434f0:	10800003 	ldbu	r2,0(r2)
   434f4:	10803fcc 	andi	r2,r2,255
   434f8:	1085883a 	add	r2,r2,r2
   434fc:	1085883a 	add	r2,r2,r2
   43500:	1007883a 	mov	r3,r2
   43504:	e0bff817 	ldw	r2,-32(fp)
   43508:	10800003 	ldbu	r2,0(r2)
   4350c:	10803fcc 	andi	r2,r2,255
   43510:	1004d13a 	srli	r2,r2,4
   43514:	10803fcc 	andi	r2,r2,255
   43518:	108000cc 	andi	r2,r2,3
   4351c:	1886b03a 	or	r3,r3,r2
   43520:	e0bffe17 	ldw	r2,-8(fp)
   43524:	10c01315 	stw	r3,76(r2)
    edid->chromaticity.g_x = ((u16)c[4] << 2) | (((u16)c[0] >> 2) & 0x3);
   43528:	e0bff817 	ldw	r2,-32(fp)
   4352c:	10800104 	addi	r2,r2,4
   43530:	10800003 	ldbu	r2,0(r2)
   43534:	10803fcc 	andi	r2,r2,255
   43538:	1085883a 	add	r2,r2,r2
   4353c:	1085883a 	add	r2,r2,r2
   43540:	1007883a 	mov	r3,r2
   43544:	e0bff817 	ldw	r2,-32(fp)
   43548:	10800003 	ldbu	r2,0(r2)
   4354c:	10803fcc 	andi	r2,r2,255
   43550:	1004d0ba 	srli	r2,r2,2
   43554:	10803fcc 	andi	r2,r2,255
   43558:	108000cc 	andi	r2,r2,3
   4355c:	1886b03a 	or	r3,r3,r2
   43560:	e0bffe17 	ldw	r2,-8(fp)
   43564:	10c01415 	stw	r3,80(r2)
    edid->chromaticity.g_y = ((u16)c[5] << 2) | ((u16)c[0] & 0x3);
   43568:	e0bff817 	ldw	r2,-32(fp)
   4356c:	10800144 	addi	r2,r2,5
   43570:	10800003 	ldbu	r2,0(r2)
   43574:	10803fcc 	andi	r2,r2,255
   43578:	1085883a 	add	r2,r2,r2
   4357c:	1085883a 	add	r2,r2,r2
   43580:	1007883a 	mov	r3,r2
   43584:	e0bff817 	ldw	r2,-32(fp)
   43588:	10800003 	ldbu	r2,0(r2)
   4358c:	10803fcc 	andi	r2,r2,255
   43590:	108000cc 	andi	r2,r2,3
   43594:	1886b03a 	or	r3,r3,r2
   43598:	e0bffe17 	ldw	r2,-8(fp)
   4359c:	10c01515 	stw	r3,84(r2)
    edid->chromaticity.b_x = ((u16)c[6] << 2) | (((u16)c[1] >> 6) & 0x3);
   435a0:	e0bff817 	ldw	r2,-32(fp)
   435a4:	10800184 	addi	r2,r2,6
   435a8:	10800003 	ldbu	r2,0(r2)
   435ac:	10803fcc 	andi	r2,r2,255
   435b0:	1085883a 	add	r2,r2,r2
   435b4:	1085883a 	add	r2,r2,r2
   435b8:	1007883a 	mov	r3,r2
   435bc:	e0bff817 	ldw	r2,-32(fp)
   435c0:	10800044 	addi	r2,r2,1
   435c4:	10800003 	ldbu	r2,0(r2)
   435c8:	10803fcc 	andi	r2,r2,255
   435cc:	1004d1ba 	srli	r2,r2,6
   435d0:	10803fcc 	andi	r2,r2,255
   435d4:	108000cc 	andi	r2,r2,3
   435d8:	1886b03a 	or	r3,r3,r2
   435dc:	e0bffe17 	ldw	r2,-8(fp)
   435e0:	10c01615 	stw	r3,88(r2)
    edid->chromaticity.b_y = ((u16)c[7] << 2) | (((u16)c[1] >> 4) & 0x3);
   435e4:	e0bff817 	ldw	r2,-32(fp)
   435e8:	108001c4 	addi	r2,r2,7
   435ec:	10800003 	ldbu	r2,0(r2)
   435f0:	10803fcc 	andi	r2,r2,255
   435f4:	1085883a 	add	r2,r2,r2
   435f8:	1085883a 	add	r2,r2,r2
   435fc:	1007883a 	mov	r3,r2
   43600:	e0bff817 	ldw	r2,-32(fp)
   43604:	10800044 	addi	r2,r2,1
   43608:	10800003 	ldbu	r2,0(r2)
   4360c:	10803fcc 	andi	r2,r2,255
   43610:	1004d13a 	srli	r2,r2,4
   43614:	10803fcc 	andi	r2,r2,255
   43618:	108000cc 	andi	r2,r2,3
   4361c:	1886b03a 	or	r3,r3,r2
   43620:	e0bffe17 	ldw	r2,-8(fp)
   43624:	10c01715 	stw	r3,92(r2)
    edid->chromaticity.w_x = ((u16)c[8] << 2) | (((u16)c[1] >> 2) & 0x3);
   43628:	e0bff817 	ldw	r2,-32(fp)
   4362c:	10800204 	addi	r2,r2,8
   43630:	10800003 	ldbu	r2,0(r2)
   43634:	10803fcc 	andi	r2,r2,255
   43638:	1085883a 	add	r2,r2,r2
   4363c:	1085883a 	add	r2,r2,r2
   43640:	1007883a 	mov	r3,r2
   43644:	e0bff817 	ldw	r2,-32(fp)
   43648:	10800044 	addi	r2,r2,1
   4364c:	10800003 	ldbu	r2,0(r2)
   43650:	10803fcc 	andi	r2,r2,255
   43654:	1004d0ba 	srli	r2,r2,2
   43658:	10803fcc 	andi	r2,r2,255
   4365c:	108000cc 	andi	r2,r2,3
   43660:	1886b03a 	or	r3,r3,r2
   43664:	e0bffe17 	ldw	r2,-8(fp)
   43668:	10c01815 	stw	r3,96(r2)
    edid->chromaticity.w_y = ((u16)c[9] << 2) | ((u16)c[1] & 0x3);
   4366c:	e0bff817 	ldw	r2,-32(fp)
   43670:	10800244 	addi	r2,r2,9
   43674:	10800003 	ldbu	r2,0(r2)
   43678:	10803fcc 	andi	r2,r2,255
   4367c:	1085883a 	add	r2,r2,r2
   43680:	1085883a 	add	r2,r2,r2
   43684:	1007883a 	mov	r3,r2
   43688:	e0bff817 	ldw	r2,-32(fp)
   4368c:	10800044 	addi	r2,r2,1
   43690:	10800003 	ldbu	r2,0(r2)
   43694:	10803fcc 	andi	r2,r2,255
   43698:	108000cc 	andi	r2,r2,3
   4369c:	1886b03a 	or	r3,r3,r2
   436a0:	e0bffe17 	ldw	r2,-8(fp)
   436a4:	10c01915 	stw	r3,100(r2)

    // established timings I/II
    c = &edid_bin[23];
   436a8:	e0bfff17 	ldw	r2,-4(fp)
   436ac:	108005c4 	addi	r2,r2,23
   436b0:	e0bff815 	stw	r2,-32(fp)

	eb_establish_timing(&edid->timing_1_2[0], 720, 400, 70, c[0] & 0x80);
   436b4:	e0bffe17 	ldw	r2,-8(fp)
   436b8:	10c01a04 	addi	r3,r2,104
   436bc:	e0bff817 	ldw	r2,-32(fp)
   436c0:	10800003 	ldbu	r2,0(r2)
   436c4:	10803fcc 	andi	r2,r2,255
   436c8:	1080200c 	andi	r2,r2,128
   436cc:	d8800015 	stw	r2,0(sp)
   436d0:	01c01184 	movi	r7,70
   436d4:	01806404 	movi	r6,400
   436d8:	0140b404 	movi	r5,720
   436dc:	1809883a 	mov	r4,r3
   436e0:	00415dc0 	call	415dc <eb_establish_timing>
	eb_establish_timing(&edid->timing_1_2[1], 720, 400, 88, c[0] & 0x40);
   436e4:	e0bffe17 	ldw	r2,-8(fp)
   436e8:	10c02004 	addi	r3,r2,128
   436ec:	e0bff817 	ldw	r2,-32(fp)
   436f0:	10800003 	ldbu	r2,0(r2)
   436f4:	10803fcc 	andi	r2,r2,255
   436f8:	1080100c 	andi	r2,r2,64
   436fc:	d8800015 	stw	r2,0(sp)
   43700:	01c01604 	movi	r7,88
   43704:	01806404 	movi	r6,400
   43708:	0140b404 	movi	r5,720
   4370c:	1809883a 	mov	r4,r3
   43710:	00415dc0 	call	415dc <eb_establish_timing>
	eb_establish_timing(&edid->timing_1_2[2], 640, 480, 60, c[0] & 0x20);
   43714:	e0bffe17 	ldw	r2,-8(fp)
   43718:	10c02604 	addi	r3,r2,152
   4371c:	e0bff817 	ldw	r2,-32(fp)
   43720:	10800003 	ldbu	r2,0(r2)
   43724:	10803fcc 	andi	r2,r2,255
   43728:	1080080c 	andi	r2,r2,32
   4372c:	d8800015 	stw	r2,0(sp)
   43730:	01c00f04 	movi	r7,60
   43734:	01807804 	movi	r6,480
   43738:	0140a004 	movi	r5,640
   4373c:	1809883a 	mov	r4,r3
   43740:	00415dc0 	call	415dc <eb_establish_timing>
	eb_establish_timing(&edid->timing_1_2[3], 640, 480, 67, c[0] & 0x10);
   43744:	e0bffe17 	ldw	r2,-8(fp)
   43748:	10c02c04 	addi	r3,r2,176
   4374c:	e0bff817 	ldw	r2,-32(fp)
   43750:	10800003 	ldbu	r2,0(r2)
   43754:	10803fcc 	andi	r2,r2,255
   43758:	1080040c 	andi	r2,r2,16
   4375c:	d8800015 	stw	r2,0(sp)
   43760:	01c010c4 	movi	r7,67
   43764:	01807804 	movi	r6,480
   43768:	0140a004 	movi	r5,640
   4376c:	1809883a 	mov	r4,r3
   43770:	00415dc0 	call	415dc <eb_establish_timing>
	eb_establish_timing(&edid->timing_1_2[4], 640, 480, 72, c[0] & 0x08);
   43774:	e0bffe17 	ldw	r2,-8(fp)
   43778:	10c03204 	addi	r3,r2,200
   4377c:	e0bff817 	ldw	r2,-32(fp)
   43780:	10800003 	ldbu	r2,0(r2)
   43784:	10803fcc 	andi	r2,r2,255
   43788:	1080020c 	andi	r2,r2,8
   4378c:	d8800015 	stw	r2,0(sp)
   43790:	01c01204 	movi	r7,72
   43794:	01807804 	movi	r6,480
   43798:	0140a004 	movi	r5,640
   4379c:	1809883a 	mov	r4,r3
   437a0:	00415dc0 	call	415dc <eb_establish_timing>
	eb_establish_timing(&edid->timing_1_2[5], 640, 480, 75, c[0] & 0x04);
   437a4:	e0bffe17 	ldw	r2,-8(fp)
   437a8:	10c03804 	addi	r3,r2,224
   437ac:	e0bff817 	ldw	r2,-32(fp)
   437b0:	10800003 	ldbu	r2,0(r2)
   437b4:	10803fcc 	andi	r2,r2,255
   437b8:	1080010c 	andi	r2,r2,4
   437bc:	d8800015 	stw	r2,0(sp)
   437c0:	01c012c4 	movi	r7,75
   437c4:	01807804 	movi	r6,480
   437c8:	0140a004 	movi	r5,640
   437cc:	1809883a 	mov	r4,r3
   437d0:	00415dc0 	call	415dc <eb_establish_timing>
	eb_establish_timing(&edid->timing_1_2[6], 800, 600, 56, c[0] & 0x02);
   437d4:	e0bffe17 	ldw	r2,-8(fp)
   437d8:	10c03e04 	addi	r3,r2,248
   437dc:	e0bff817 	ldw	r2,-32(fp)
   437e0:	10800003 	ldbu	r2,0(r2)
   437e4:	10803fcc 	andi	r2,r2,255
   437e8:	1080008c 	andi	r2,r2,2
   437ec:	d8800015 	stw	r2,0(sp)
   437f0:	01c00e04 	movi	r7,56
   437f4:	01809604 	movi	r6,600
   437f8:	0140c804 	movi	r5,800
   437fc:	1809883a 	mov	r4,r3
   43800:	00415dc0 	call	415dc <eb_establish_timing>
	eb_establish_timing(&edid->timing_1_2[7], 800, 600, 60, c[0] & 0x01);
   43804:	e0bffe17 	ldw	r2,-8(fp)
   43808:	10c04404 	addi	r3,r2,272
   4380c:	e0bff817 	ldw	r2,-32(fp)
   43810:	10800003 	ldbu	r2,0(r2)
   43814:	10803fcc 	andi	r2,r2,255
   43818:	1080004c 	andi	r2,r2,1
   4381c:	d8800015 	stw	r2,0(sp)
   43820:	01c00f04 	movi	r7,60
   43824:	01809604 	movi	r6,600
   43828:	0140c804 	movi	r5,800
   4382c:	1809883a 	mov	r4,r3
   43830:	00415dc0 	call	415dc <eb_establish_timing>
	eb_establish_timing(&edid->timing_1_2[8], 800, 600, 72, c[1] & 0x80);
   43834:	e0bffe17 	ldw	r2,-8(fp)
   43838:	10c04a04 	addi	r3,r2,296
   4383c:	e0bff817 	ldw	r2,-32(fp)
   43840:	10800044 	addi	r2,r2,1
   43844:	10800003 	ldbu	r2,0(r2)
   43848:	10803fcc 	andi	r2,r2,255
   4384c:	1080200c 	andi	r2,r2,128
   43850:	d8800015 	stw	r2,0(sp)
   43854:	01c01204 	movi	r7,72
   43858:	01809604 	movi	r6,600
   4385c:	0140c804 	movi	r5,800
   43860:	1809883a 	mov	r4,r3
   43864:	00415dc0 	call	415dc <eb_establish_timing>
	eb_establish_timing(&edid->timing_1_2[9], 800, 600, 75, c[1] & 0x40);
   43868:	e0bffe17 	ldw	r2,-8(fp)
   4386c:	10c05004 	addi	r3,r2,320
   43870:	e0bff817 	ldw	r2,-32(fp)
   43874:	10800044 	addi	r2,r2,1
   43878:	10800003 	ldbu	r2,0(r2)
   4387c:	10803fcc 	andi	r2,r2,255
   43880:	1080100c 	andi	r2,r2,64
   43884:	d8800015 	stw	r2,0(sp)
   43888:	01c012c4 	movi	r7,75
   4388c:	01809604 	movi	r6,600
   43890:	0140c804 	movi	r5,800
   43894:	1809883a 	mov	r4,r3
   43898:	00415dc0 	call	415dc <eb_establish_timing>
	eb_establish_timing(&edid->timing_1_2[10], 823, 624, 75, c[1] & 0x20);
   4389c:	e0bffe17 	ldw	r2,-8(fp)
   438a0:	10c05604 	addi	r3,r2,344
   438a4:	e0bff817 	ldw	r2,-32(fp)
   438a8:	10800044 	addi	r2,r2,1
   438ac:	10800003 	ldbu	r2,0(r2)
   438b0:	10803fcc 	andi	r2,r2,255
   438b4:	1080080c 	andi	r2,r2,32
   438b8:	d8800015 	stw	r2,0(sp)
   438bc:	01c012c4 	movi	r7,75
   438c0:	01809c04 	movi	r6,624
   438c4:	0140cdc4 	movi	r5,823
   438c8:	1809883a 	mov	r4,r3
   438cc:	00415dc0 	call	415dc <eb_establish_timing>
	eb_establish_timing_i(&edid->timing_1_2[11], 1024, 768, 87, c[1] & 0x10);
   438d0:	e0bffe17 	ldw	r2,-8(fp)
   438d4:	10c05c04 	addi	r3,r2,368
   438d8:	e0bff817 	ldw	r2,-32(fp)
   438dc:	10800044 	addi	r2,r2,1
   438e0:	10800003 	ldbu	r2,0(r2)
   438e4:	10803fcc 	andi	r2,r2,255
   438e8:	1080040c 	andi	r2,r2,16
   438ec:	d8800015 	stw	r2,0(sp)
   438f0:	01c015c4 	movi	r7,87
   438f4:	0180c004 	movi	r6,768
   438f8:	01410004 	movi	r5,1024
   438fc:	1809883a 	mov	r4,r3
   43900:	00416880 	call	41688 <eb_establish_timing_i>
	eb_establish_timing(&edid->timing_1_2[12], 1024, 768, 60, c[1] & 0x08);
   43904:	e0bffe17 	ldw	r2,-8(fp)
   43908:	10c06204 	addi	r3,r2,392
   4390c:	e0bff817 	ldw	r2,-32(fp)
   43910:	10800044 	addi	r2,r2,1
   43914:	10800003 	ldbu	r2,0(r2)
   43918:	10803fcc 	andi	r2,r2,255
   4391c:	1080020c 	andi	r2,r2,8
   43920:	d8800015 	stw	r2,0(sp)
   43924:	01c00f04 	movi	r7,60
   43928:	0180c004 	movi	r6,768
   4392c:	01410004 	movi	r5,1024
   43930:	1809883a 	mov	r4,r3
   43934:	00415dc0 	call	415dc <eb_establish_timing>
	eb_establish_timing(&edid->timing_1_2[13], 1024, 768, 70, c[1] & 0x04);
   43938:	e0bffe17 	ldw	r2,-8(fp)
   4393c:	10c06804 	addi	r3,r2,416
   43940:	e0bff817 	ldw	r2,-32(fp)
   43944:	10800044 	addi	r2,r2,1
   43948:	10800003 	ldbu	r2,0(r2)
   4394c:	10803fcc 	andi	r2,r2,255
   43950:	1080010c 	andi	r2,r2,4
   43954:	d8800015 	stw	r2,0(sp)
   43958:	01c01184 	movi	r7,70
   4395c:	0180c004 	movi	r6,768
   43960:	01410004 	movi	r5,1024
   43964:	1809883a 	mov	r4,r3
   43968:	00415dc0 	call	415dc <eb_establish_timing>
	eb_establish_timing(&edid->timing_1_2[14], 1024, 768, 75, c[1] & 0x02);
   4396c:	e0bffe17 	ldw	r2,-8(fp)
   43970:	10c06e04 	addi	r3,r2,440
   43974:	e0bff817 	ldw	r2,-32(fp)
   43978:	10800044 	addi	r2,r2,1
   4397c:	10800003 	ldbu	r2,0(r2)
   43980:	10803fcc 	andi	r2,r2,255
   43984:	1080008c 	andi	r2,r2,2
   43988:	d8800015 	stw	r2,0(sp)
   4398c:	01c012c4 	movi	r7,75
   43990:	0180c004 	movi	r6,768
   43994:	01410004 	movi	r5,1024
   43998:	1809883a 	mov	r4,r3
   4399c:	00415dc0 	call	415dc <eb_establish_timing>
	eb_establish_timing(&edid->timing_1_2[15], 1280, 1024, 75, c[1] & 0x01);
   439a0:	e0bffe17 	ldw	r2,-8(fp)
   439a4:	10c07404 	addi	r3,r2,464
   439a8:	e0bff817 	ldw	r2,-32(fp)
   439ac:	10800044 	addi	r2,r2,1
   439b0:	10800003 	ldbu	r2,0(r2)
   439b4:	10803fcc 	andi	r2,r2,255
   439b8:	1080004c 	andi	r2,r2,1
   439bc:	d8800015 	stw	r2,0(sp)
   439c0:	01c012c4 	movi	r7,75
   439c4:	01810004 	movi	r6,1024
   439c8:	01414004 	movi	r5,1280
   439cc:	1809883a 	mov	r4,r3
   439d0:	00415dc0 	call	415dc <eb_establish_timing>
	eb_establish_timing(&edid->timing_1_2[16], 1152, 870, 75, c[2] & 0x80);
   439d4:	e0bffe17 	ldw	r2,-8(fp)
   439d8:	10c07a04 	addi	r3,r2,488
   439dc:	e0bff817 	ldw	r2,-32(fp)
   439e0:	10800084 	addi	r2,r2,2
   439e4:	10800003 	ldbu	r2,0(r2)
   439e8:	10803fcc 	andi	r2,r2,255
   439ec:	1080200c 	andi	r2,r2,128
   439f0:	d8800015 	stw	r2,0(sp)
   439f4:	01c012c4 	movi	r7,75
   439f8:	0180d984 	movi	r6,870
   439fc:	01412004 	movi	r5,1152
   43a00:	1809883a 	mov	r4,r3
   43a04:	00415dc0 	call	415dc <eb_establish_timing>

    // standard timings
    c = &edid_bin[26];
   43a08:	e0bfff17 	ldw	r2,-4(fp)
   43a0c:	10800684 	addi	r2,r2,26
   43a10:	e0bff815 	stw	r2,-32(fp)

    for (i = 0; i < 8; ++i, c += 2) {
   43a14:	e03ffa15 	stw	zero,-24(fp)
   43a18:	00005406 	br	43b6c <edid_decode_v14+0x10b4>
        if (*c == 0)
   43a1c:	e0bff817 	ldw	r2,-32(fp)
   43a20:	10800003 	ldbu	r2,0(r2)
   43a24:	10803fcc 	andi	r2,r2,255
   43a28:	10004926 	beq	r2,zero,43b50 <edid_decode_v14+0x1098>
        	continue;

        edid->standard_timings[i].horizontal = (c[0] + 31) * 8;
   43a2c:	e0bff817 	ldw	r2,-32(fp)
   43a30:	10800003 	ldbu	r2,0(r2)
   43a34:	10803fcc 	andi	r2,r2,255
   43a38:	108007c4 	addi	r2,r2,31
   43a3c:	100690fa 	slli	r3,r2,3
   43a40:	e13ffe17 	ldw	r4,-8(fp)
   43a44:	e0bffa17 	ldw	r2,-24(fp)
   43a48:	10800324 	muli	r2,r2,12
   43a4c:	2085883a 	add	r2,r4,r2
   43a50:	10808004 	addi	r2,r2,512
   43a54:	10c00015 	stw	r3,0(r2)

		switch ((c[1] >> 6) & 0x3) {
   43a58:	e0bff817 	ldw	r2,-32(fp)
   43a5c:	10800044 	addi	r2,r2,1
   43a60:	10800003 	ldbu	r2,0(r2)
   43a64:	10803fcc 	andi	r2,r2,255
   43a68:	1004d1ba 	srli	r2,r2,6
   43a6c:	10803fcc 	andi	r2,r2,255
   43a70:	108000cc 	andi	r2,r2,3
   43a74:	10c00060 	cmpeqi	r3,r2,1
   43a78:	1800101e 	bne	r3,zero,43abc <edid_decode_v14+0x1004>
   43a7c:	10c00088 	cmpgei	r3,r2,2
   43a80:	1800021e 	bne	r3,zero,43a8c <edid_decode_v14+0xfd4>
   43a84:	10000626 	beq	r2,zero,43aa0 <edid_decode_v14+0xfe8>
   43a88:	00002406 	br	43b1c <edid_decode_v14+0x1064>
   43a8c:	10c000a0 	cmpeqi	r3,r2,2
   43a90:	1800121e 	bne	r3,zero,43adc <edid_decode_v14+0x1024>
   43a94:	108000e0 	cmpeqi	r2,r2,3
   43a98:	1000181e 	bne	r2,zero,43afc <edid_decode_v14+0x1044>
   43a9c:	00001f06 	br	43b1c <edid_decode_v14+0x1064>
		case 0:
			edid->standard_timings[i].aspect_ratio = ST_AR_16_10;
   43aa0:	e0fffe17 	ldw	r3,-8(fp)
   43aa4:	e0bffa17 	ldw	r2,-24(fp)
   43aa8:	10800324 	muli	r2,r2,12
   43aac:	1885883a 	add	r2,r3,r2
   43ab0:	10808104 	addi	r2,r2,516
   43ab4:	10000015 	stw	zero,0(r2)
			break;
   43ab8:	00001806 	br	43b1c <edid_decode_v14+0x1064>
		case 1:
			edid->standard_timings[i].aspect_ratio = ST_AR_4_3;
   43abc:	e0fffe17 	ldw	r3,-8(fp)
   43ac0:	e0bffa17 	ldw	r2,-24(fp)
   43ac4:	10800324 	muli	r2,r2,12
   43ac8:	1885883a 	add	r2,r3,r2
   43acc:	10808104 	addi	r2,r2,516
   43ad0:	00c00044 	movi	r3,1
   43ad4:	10c00015 	stw	r3,0(r2)
			break;
   43ad8:	00001006 	br	43b1c <edid_decode_v14+0x1064>
		case 2:
			edid->standard_timings[i].aspect_ratio = ST_AR_5_4;
   43adc:	e0fffe17 	ldw	r3,-8(fp)
   43ae0:	e0bffa17 	ldw	r2,-24(fp)
   43ae4:	10800324 	muli	r2,r2,12
   43ae8:	1885883a 	add	r2,r3,r2
   43aec:	10808104 	addi	r2,r2,516
   43af0:	00c00084 	movi	r3,2
   43af4:	10c00015 	stw	r3,0(r2)
			break;
   43af8:	00000806 	br	43b1c <edid_decode_v14+0x1064>
		case 3:
			edid->standard_timings[i].aspect_ratio = ST_AR_16_9;
   43afc:	e0fffe17 	ldw	r3,-8(fp)
   43b00:	e0bffa17 	ldw	r2,-24(fp)
   43b04:	10800324 	muli	r2,r2,12
   43b08:	1885883a 	add	r2,r3,r2
   43b0c:	10808104 	addi	r2,r2,516
   43b10:	00c000c4 	movi	r3,3
   43b14:	10c00015 	stw	r3,0(r2)
			break;
   43b18:	0001883a 	nop
		}

		edid->standard_timings[i].refresh_rate = (c[1] & 0x3f) + 60;
   43b1c:	e0bff817 	ldw	r2,-32(fp)
   43b20:	10800044 	addi	r2,r2,1
   43b24:	10800003 	ldbu	r2,0(r2)
   43b28:	10803fcc 	andi	r2,r2,255
   43b2c:	10800fcc 	andi	r2,r2,63
   43b30:	10c00f04 	addi	r3,r2,60
   43b34:	e13ffe17 	ldw	r4,-8(fp)
   43b38:	e0bffa17 	ldw	r2,-24(fp)
   43b3c:	10800324 	muli	r2,r2,12
   43b40:	2085883a 	add	r2,r4,r2
   43b44:	10808204 	addi	r2,r2,520
   43b48:	10c00015 	stw	r3,0(r2)
   43b4c:	00000106 	br	43b54 <edid_decode_v14+0x109c>
    // standard timings
    c = &edid_bin[26];

    for (i = 0; i < 8; ++i, c += 2) {
        if (*c == 0)
        	continue;
   43b50:	0001883a 	nop
	eb_establish_timing(&edid->timing_1_2[16], 1152, 870, 75, c[2] & 0x80);

    // standard timings
    c = &edid_bin[26];

    for (i = 0; i < 8; ++i, c += 2) {
   43b54:	e0bffa17 	ldw	r2,-24(fp)
   43b58:	10800044 	addi	r2,r2,1
   43b5c:	e0bffa15 	stw	r2,-24(fp)
   43b60:	e0bff817 	ldw	r2,-32(fp)
   43b64:	10800084 	addi	r2,r2,2
   43b68:	e0bff815 	stw	r2,-32(fp)
   43b6c:	e0bffa17 	ldw	r2,-24(fp)
   43b70:	10800210 	cmplti	r2,r2,8
   43b74:	103fa91e 	bne	r2,zero,43a1c <__alt_data_end+0xfffd7afc>

		edid->standard_timings[i].refresh_rate = (c[1] & 0x3f) + 60;
    }

    // 18-byte descriptors x 4
    for (i = 0; i < 4; ++i) {
   43b78:	e03ffa15 	stw	zero,-24(fp)
   43b7c:	000bef06 	br	46b3c <edid_decode_v14+0x4084>

    	c = &edid_bin[36 + 18 * i];
   43b80:	e0bffa17 	ldw	r2,-24(fp)
   43b84:	108004a4 	muli	r2,r2,18
   43b88:	10800904 	addi	r2,r2,36
   43b8c:	1007883a 	mov	r3,r2
   43b90:	e0bfff17 	ldw	r2,-4(fp)
   43b94:	10c5883a 	add	r2,r2,r3
   43b98:	e0bff815 	stw	r2,-32(fp)

        if ((c[0] != 0) || (c[1] != 0)) {
   43b9c:	e0bff817 	ldw	r2,-32(fp)
   43ba0:	10800003 	ldbu	r2,0(r2)
   43ba4:	10803fcc 	andi	r2,r2,255
   43ba8:	1000051e 	bne	r2,zero,43bc0 <edid_decode_v14+0x1108>
   43bac:	e0bff817 	ldw	r2,-32(fp)
   43bb0:	10800044 	addi	r2,r2,1
   43bb4:	10800003 	ldbu	r2,0(r2)
   43bb8:	10803fcc 	andi	r2,r2,255
   43bbc:	10021c26 	beq	r2,zero,44430 <edid_decode_v14+0x1978>
            // detailed timing definition (preferred timing if is the first descriptor)

        	edid->descriptors[i].type = DT_DETAILED_TIMING;
   43bc0:	e0fffe17 	ldw	r3,-8(fp)
   43bc4:	e0bffa17 	ldw	r2,-24(fp)
   43bc8:	10815c24 	muli	r2,r2,1392
   43bcc:	1885883a 	add	r2,r3,r2
   43bd0:	10809804 	addi	r2,r2,608
   43bd4:	10000015 	stw	zero,0(r2)

            edid->descriptors[i].detailed_timing.pixel_clock = (((int)c[1] << 8) | (int)c[0]) * 10000;
   43bd8:	e0bff817 	ldw	r2,-32(fp)
   43bdc:	10800044 	addi	r2,r2,1
   43be0:	10800003 	ldbu	r2,0(r2)
   43be4:	10803fcc 	andi	r2,r2,255
   43be8:	1006923a 	slli	r3,r2,8
   43bec:	e0bff817 	ldw	r2,-32(fp)
   43bf0:	10800003 	ldbu	r2,0(r2)
   43bf4:	10803fcc 	andi	r2,r2,255
   43bf8:	1884b03a 	or	r2,r3,r2
   43bfc:	10c9c424 	muli	r3,r2,10000
   43c00:	e13ffe17 	ldw	r4,-8(fp)
   43c04:	e0bffa17 	ldw	r2,-24(fp)
   43c08:	10815c24 	muli	r2,r2,1392
   43c0c:	2085883a 	add	r2,r4,r2
   43c10:	10809a04 	addi	r2,r2,616
   43c14:	10c00015 	stw	r3,0(r2)
            edid->descriptors[i].detailed_timing.width = (((int)c[4] << 4) & 0xf00) | (int)c[2];
   43c18:	e0bff817 	ldw	r2,-32(fp)
   43c1c:	10800104 	addi	r2,r2,4
   43c20:	10800003 	ldbu	r2,0(r2)
   43c24:	10803fcc 	andi	r2,r2,255
   43c28:	1004913a 	slli	r2,r2,4
   43c2c:	10c3c00c 	andi	r3,r2,3840
   43c30:	e0bff817 	ldw	r2,-32(fp)
   43c34:	10800084 	addi	r2,r2,2
   43c38:	10800003 	ldbu	r2,0(r2)
   43c3c:	10803fcc 	andi	r2,r2,255
   43c40:	1886b03a 	or	r3,r3,r2
   43c44:	e13ffe17 	ldw	r4,-8(fp)
   43c48:	e0bffa17 	ldw	r2,-24(fp)
   43c4c:	10815c24 	muli	r2,r2,1392
   43c50:	2085883a 	add	r2,r4,r2
   43c54:	10809b04 	addi	r2,r2,620
   43c58:	10c00015 	stw	r3,0(r2)
            edid->descriptors[i].detailed_timing.height = (((int)c[7] << 4) & 0xf00) | (int)c[5];
   43c5c:	e0bff817 	ldw	r2,-32(fp)
   43c60:	108001c4 	addi	r2,r2,7
   43c64:	10800003 	ldbu	r2,0(r2)
   43c68:	10803fcc 	andi	r2,r2,255
   43c6c:	1004913a 	slli	r2,r2,4
   43c70:	10c3c00c 	andi	r3,r2,3840
   43c74:	e0bff817 	ldw	r2,-32(fp)
   43c78:	10800144 	addi	r2,r2,5
   43c7c:	10800003 	ldbu	r2,0(r2)
   43c80:	10803fcc 	andi	r2,r2,255
   43c84:	1886b03a 	or	r3,r3,r2
   43c88:	e13ffe17 	ldw	r4,-8(fp)
   43c8c:	e0bffa17 	ldw	r2,-24(fp)
   43c90:	10815c24 	muli	r2,r2,1392
   43c94:	2085883a 	add	r2,r4,r2
   43c98:	10809c04 	addi	r2,r2,624
   43c9c:	10c00015 	stw	r3,0(r2)
            edid->descriptors[i].detailed_timing.h_blank = (((int)c[4] << 8) & 0xf00) | (int)c[3];
   43ca0:	e0bff817 	ldw	r2,-32(fp)
   43ca4:	10800104 	addi	r2,r2,4
   43ca8:	10800003 	ldbu	r2,0(r2)
   43cac:	10803fcc 	andi	r2,r2,255
   43cb0:	1004923a 	slli	r2,r2,8
   43cb4:	10c3c00c 	andi	r3,r2,3840
   43cb8:	e0bff817 	ldw	r2,-32(fp)
   43cbc:	108000c4 	addi	r2,r2,3
   43cc0:	10800003 	ldbu	r2,0(r2)
   43cc4:	10803fcc 	andi	r2,r2,255
   43cc8:	1886b03a 	or	r3,r3,r2
   43ccc:	e13ffe17 	ldw	r4,-8(fp)
   43cd0:	e0bffa17 	ldw	r2,-24(fp)
   43cd4:	10815c24 	muli	r2,r2,1392
   43cd8:	2085883a 	add	r2,r4,r2
   43cdc:	10809d04 	addi	r2,r2,628
   43ce0:	10c00015 	stw	r3,0(r2)
            edid->descriptors[i].detailed_timing.v_blank = (((int)c[7] << 8) & 0xf00) | (int)c[6];
   43ce4:	e0bff817 	ldw	r2,-32(fp)
   43ce8:	108001c4 	addi	r2,r2,7
   43cec:	10800003 	ldbu	r2,0(r2)
   43cf0:	10803fcc 	andi	r2,r2,255
   43cf4:	1004923a 	slli	r2,r2,8
   43cf8:	10c3c00c 	andi	r3,r2,3840
   43cfc:	e0bff817 	ldw	r2,-32(fp)
   43d00:	10800184 	addi	r2,r2,6
   43d04:	10800003 	ldbu	r2,0(r2)
   43d08:	10803fcc 	andi	r2,r2,255
   43d0c:	1886b03a 	or	r3,r3,r2
   43d10:	e13ffe17 	ldw	r4,-8(fp)
   43d14:	e0bffa17 	ldw	r2,-24(fp)
   43d18:	10815c24 	muli	r2,r2,1392
   43d1c:	2085883a 	add	r2,r4,r2
   43d20:	10809e04 	addi	r2,r2,632
   43d24:	10c00015 	stw	r3,0(r2)
            edid->descriptors[i].detailed_timing.h_fp = (((int)c[11] << 2) & 0x300) | (int)c[8];
   43d28:	e0bff817 	ldw	r2,-32(fp)
   43d2c:	108002c4 	addi	r2,r2,11
   43d30:	10800003 	ldbu	r2,0(r2)
   43d34:	10803fcc 	andi	r2,r2,255
   43d38:	1085883a 	add	r2,r2,r2
   43d3c:	1085883a 	add	r2,r2,r2
   43d40:	10c0c00c 	andi	r3,r2,768
   43d44:	e0bff817 	ldw	r2,-32(fp)
   43d48:	10800204 	addi	r2,r2,8
   43d4c:	10800003 	ldbu	r2,0(r2)
   43d50:	10803fcc 	andi	r2,r2,255
   43d54:	1886b03a 	or	r3,r3,r2
   43d58:	e13ffe17 	ldw	r4,-8(fp)
   43d5c:	e0bffa17 	ldw	r2,-24(fp)
   43d60:	10815c24 	muli	r2,r2,1392
   43d64:	2085883a 	add	r2,r4,r2
   43d68:	10809f04 	addi	r2,r2,636
   43d6c:	10c00015 	stw	r3,0(r2)
            edid->descriptors[i].detailed_timing.v_fp = (((int)c[11] << 2) & 0x30) | ((int)c[10] >> 4);
   43d70:	e0bff817 	ldw	r2,-32(fp)
   43d74:	108002c4 	addi	r2,r2,11
   43d78:	10800003 	ldbu	r2,0(r2)
   43d7c:	10803fcc 	andi	r2,r2,255
   43d80:	1085883a 	add	r2,r2,r2
   43d84:	1085883a 	add	r2,r2,r2
   43d88:	10c00c0c 	andi	r3,r2,48
   43d8c:	e0bff817 	ldw	r2,-32(fp)
   43d90:	10800284 	addi	r2,r2,10
   43d94:	10800003 	ldbu	r2,0(r2)
   43d98:	10803fcc 	andi	r2,r2,255
   43d9c:	1004d13a 	srli	r2,r2,4
   43da0:	10803fcc 	andi	r2,r2,255
   43da4:	1886b03a 	or	r3,r3,r2
   43da8:	e13ffe17 	ldw	r4,-8(fp)
   43dac:	e0bffa17 	ldw	r2,-24(fp)
   43db0:	10815c24 	muli	r2,r2,1392
   43db4:	2085883a 	add	r2,r4,r2
   43db8:	1080a004 	addi	r2,r2,640
   43dbc:	10c00015 	stw	r3,0(r2)
            edid->descriptors[i].detailed_timing.h_sync = (((int)c[11] << 4) & 0x300) | (int)c[9];
   43dc0:	e0bff817 	ldw	r2,-32(fp)
   43dc4:	108002c4 	addi	r2,r2,11
   43dc8:	10800003 	ldbu	r2,0(r2)
   43dcc:	10803fcc 	andi	r2,r2,255
   43dd0:	1004913a 	slli	r2,r2,4
   43dd4:	10c0c00c 	andi	r3,r2,768
   43dd8:	e0bff817 	ldw	r2,-32(fp)
   43ddc:	10800244 	addi	r2,r2,9
   43de0:	10800003 	ldbu	r2,0(r2)
   43de4:	10803fcc 	andi	r2,r2,255
   43de8:	1886b03a 	or	r3,r3,r2
   43dec:	e13ffe17 	ldw	r4,-8(fp)
   43df0:	e0bffa17 	ldw	r2,-24(fp)
   43df4:	10815c24 	muli	r2,r2,1392
   43df8:	2085883a 	add	r2,r4,r2
   43dfc:	1080a104 	addi	r2,r2,644
   43e00:	10c00015 	stw	r3,0(r2)
            edid->descriptors[i].detailed_timing.v_sync = (((int)c[11] << 4) & 0x30) | ((int)c[10] & 0x0f);
   43e04:	e0bff817 	ldw	r2,-32(fp)
   43e08:	108002c4 	addi	r2,r2,11
   43e0c:	10800003 	ldbu	r2,0(r2)
   43e10:	10803fcc 	andi	r2,r2,255
   43e14:	1004913a 	slli	r2,r2,4
   43e18:	10c00c0c 	andi	r3,r2,48
   43e1c:	e0bff817 	ldw	r2,-32(fp)
   43e20:	10800284 	addi	r2,r2,10
   43e24:	10800003 	ldbu	r2,0(r2)
   43e28:	10803fcc 	andi	r2,r2,255
   43e2c:	108003cc 	andi	r2,r2,15
   43e30:	1886b03a 	or	r3,r3,r2
   43e34:	e13ffe17 	ldw	r4,-8(fp)
   43e38:	e0bffa17 	ldw	r2,-24(fp)
   43e3c:	10815c24 	muli	r2,r2,1392
   43e40:	2085883a 	add	r2,r4,r2
   43e44:	1080a204 	addi	r2,r2,648
   43e48:	10c00015 	stw	r3,0(r2)
            edid->descriptors[i].detailed_timing.h_size = (((int)c[14] << 4) & 0xf00) | (int)c[12];
   43e4c:	e0bff817 	ldw	r2,-32(fp)
   43e50:	10800384 	addi	r2,r2,14
   43e54:	10800003 	ldbu	r2,0(r2)
   43e58:	10803fcc 	andi	r2,r2,255
   43e5c:	1004913a 	slli	r2,r2,4
   43e60:	10c3c00c 	andi	r3,r2,3840
   43e64:	e0bff817 	ldw	r2,-32(fp)
   43e68:	10800304 	addi	r2,r2,12
   43e6c:	10800003 	ldbu	r2,0(r2)
   43e70:	10803fcc 	andi	r2,r2,255
   43e74:	1886b03a 	or	r3,r3,r2
   43e78:	e13ffe17 	ldw	r4,-8(fp)
   43e7c:	e0bffa17 	ldw	r2,-24(fp)
   43e80:	10815c24 	muli	r2,r2,1392
   43e84:	2085883a 	add	r2,r4,r2
   43e88:	1080a304 	addi	r2,r2,652
   43e8c:	10c00015 	stw	r3,0(r2)
            edid->descriptors[i].detailed_timing.v_size = (((int)c[14] << 8) & 0xf00) | (int)c[13];
   43e90:	e0bff817 	ldw	r2,-32(fp)
   43e94:	10800384 	addi	r2,r2,14
   43e98:	10800003 	ldbu	r2,0(r2)
   43e9c:	10803fcc 	andi	r2,r2,255
   43ea0:	1004923a 	slli	r2,r2,8
   43ea4:	10c3c00c 	andi	r3,r2,3840
   43ea8:	e0bff817 	ldw	r2,-32(fp)
   43eac:	10800344 	addi	r2,r2,13
   43eb0:	10800003 	ldbu	r2,0(r2)
   43eb4:	10803fcc 	andi	r2,r2,255
   43eb8:	1886b03a 	or	r3,r3,r2
   43ebc:	e13ffe17 	ldw	r4,-8(fp)
   43ec0:	e0bffa17 	ldw	r2,-24(fp)
   43ec4:	10815c24 	muli	r2,r2,1392
   43ec8:	2085883a 	add	r2,r4,r2
   43ecc:	1080a404 	addi	r2,r2,656
   43ed0:	10c00015 	stw	r3,0(r2)
            edid->descriptors[i].detailed_timing.border_lr = (int)c[15];
   43ed4:	e0bff817 	ldw	r2,-32(fp)
   43ed8:	108003c4 	addi	r2,r2,15
   43edc:	10800003 	ldbu	r2,0(r2)
   43ee0:	10c03fcc 	andi	r3,r2,255
   43ee4:	e13ffe17 	ldw	r4,-8(fp)
   43ee8:	e0bffa17 	ldw	r2,-24(fp)
   43eec:	10815c24 	muli	r2,r2,1392
   43ef0:	2085883a 	add	r2,r4,r2
   43ef4:	1080a504 	addi	r2,r2,660
   43ef8:	10c00015 	stw	r3,0(r2)
            edid->descriptors[i].detailed_timing.border_tb = (int)c[16];
   43efc:	e0bff817 	ldw	r2,-32(fp)
   43f00:	10800404 	addi	r2,r2,16
   43f04:	10800003 	ldbu	r2,0(r2)
   43f08:	10c03fcc 	andi	r3,r2,255
   43f0c:	e13ffe17 	ldw	r4,-8(fp)
   43f10:	e0bffa17 	ldw	r2,-24(fp)
   43f14:	10815c24 	muli	r2,r2,1392
   43f18:	2085883a 	add	r2,r4,r2
   43f1c:	1080a604 	addi	r2,r2,664
   43f20:	10c00015 	stw	r3,0(r2)

            edid->descriptors[i].detailed_timing.interlaced = (c[17] & 0x80) ? 1 : 0;
   43f24:	e0bff817 	ldw	r2,-32(fp)
   43f28:	10800444 	addi	r2,r2,17
   43f2c:	10800003 	ldbu	r2,0(r2)
   43f30:	10803fcc 	andi	r2,r2,255
   43f34:	1004d1fa 	srli	r2,r2,7
   43f38:	10c03fcc 	andi	r3,r2,255
   43f3c:	e13ffe17 	ldw	r4,-8(fp)
   43f40:	e0bffa17 	ldw	r2,-24(fp)
   43f44:	10815c24 	muli	r2,r2,1392
   43f48:	2085883a 	add	r2,r4,r2
   43f4c:	1080a704 	addi	r2,r2,668
   43f50:	10c00015 	stw	r3,0(r2)

            edid->descriptors[i].detailed_timing.stereo = STEREO_NONE;
   43f54:	e0fffe17 	ldw	r3,-8(fp)
   43f58:	e0bffa17 	ldw	r2,-24(fp)
   43f5c:	10815c24 	muli	r2,r2,1392
   43f60:	1885883a 	add	r2,r3,r2
   43f64:	1080a804 	addi	r2,r2,672
   43f68:	10000015 	stw	zero,0(r2)
			if ((c[17] & 0x61) == 0x20)
   43f6c:	e0bff817 	ldw	r2,-32(fp)
   43f70:	10800444 	addi	r2,r2,17
   43f74:	10800003 	ldbu	r2,0(r2)
   43f78:	10803fcc 	andi	r2,r2,255
   43f7c:	1080184c 	andi	r2,r2,97
   43f80:	10800818 	cmpnei	r2,r2,32
   43f84:	10000d1e 	bne	r2,zero,43fbc <edid_decode_v14+0x1504>
				edid->descriptors[i].detailed_timing.stereo |= STEREO_FIELD_SEQUENTIAL_RIGHT_SYNC;
   43f88:	e0fffe17 	ldw	r3,-8(fp)
   43f8c:	e0bffa17 	ldw	r2,-24(fp)
   43f90:	10815c24 	muli	r2,r2,1392
   43f94:	1885883a 	add	r2,r3,r2
   43f98:	1080a804 	addi	r2,r2,672
   43f9c:	10800017 	ldw	r2,0(r2)
   43fa0:	10c00094 	ori	r3,r2,2
   43fa4:	e13ffe17 	ldw	r4,-8(fp)
   43fa8:	e0bffa17 	ldw	r2,-24(fp)
   43fac:	10815c24 	muli	r2,r2,1392
   43fb0:	2085883a 	add	r2,r4,r2
   43fb4:	1080a804 	addi	r2,r2,672
   43fb8:	10c00015 	stw	r3,0(r2)
			if ((c[17] & 0x61) == 0x40)
   43fbc:	e0bff817 	ldw	r2,-32(fp)
   43fc0:	10800444 	addi	r2,r2,17
   43fc4:	10800003 	ldbu	r2,0(r2)
   43fc8:	10803fcc 	andi	r2,r2,255
   43fcc:	1080184c 	andi	r2,r2,97
   43fd0:	10801018 	cmpnei	r2,r2,64
   43fd4:	10000d1e 	bne	r2,zero,4400c <edid_decode_v14+0x1554>
				edid->descriptors[i].detailed_timing.stereo |= STEREO_FIELD_SEQUENTIAL_LEFT_SYNC;
   43fd8:	e0fffe17 	ldw	r3,-8(fp)
   43fdc:	e0bffa17 	ldw	r2,-24(fp)
   43fe0:	10815c24 	muli	r2,r2,1392
   43fe4:	1885883a 	add	r2,r3,r2
   43fe8:	1080a804 	addi	r2,r2,672
   43fec:	10800017 	ldw	r2,0(r2)
   43ff0:	10c00114 	ori	r3,r2,4
   43ff4:	e13ffe17 	ldw	r4,-8(fp)
   43ff8:	e0bffa17 	ldw	r2,-24(fp)
   43ffc:	10815c24 	muli	r2,r2,1392
   44000:	2085883a 	add	r2,r4,r2
   44004:	1080a804 	addi	r2,r2,672
   44008:	10c00015 	stw	r3,0(r2)
			if ((c[17] & 0x61) == 0x21)
   4400c:	e0bff817 	ldw	r2,-32(fp)
   44010:	10800444 	addi	r2,r2,17
   44014:	10800003 	ldbu	r2,0(r2)
   44018:	10803fcc 	andi	r2,r2,255
   4401c:	1080184c 	andi	r2,r2,97
   44020:	10800858 	cmpnei	r2,r2,33
   44024:	10000d1e 	bne	r2,zero,4405c <edid_decode_v14+0x15a4>
				edid->descriptors[i].detailed_timing.stereo |= STEREO_2WAY_INTERLEAVE_RIGHT_EVEN;
   44028:	e0fffe17 	ldw	r3,-8(fp)
   4402c:	e0bffa17 	ldw	r2,-24(fp)
   44030:	10815c24 	muli	r2,r2,1392
   44034:	1885883a 	add	r2,r3,r2
   44038:	1080a804 	addi	r2,r2,672
   4403c:	10800017 	ldw	r2,0(r2)
   44040:	10c00214 	ori	r3,r2,8
   44044:	e13ffe17 	ldw	r4,-8(fp)
   44048:	e0bffa17 	ldw	r2,-24(fp)
   4404c:	10815c24 	muli	r2,r2,1392
   44050:	2085883a 	add	r2,r4,r2
   44054:	1080a804 	addi	r2,r2,672
   44058:	10c00015 	stw	r3,0(r2)
			if ((c[17] & 0x61) == 0x41)
   4405c:	e0bff817 	ldw	r2,-32(fp)
   44060:	10800444 	addi	r2,r2,17
   44064:	10800003 	ldbu	r2,0(r2)
   44068:	10803fcc 	andi	r2,r2,255
   4406c:	1080184c 	andi	r2,r2,97
   44070:	10801058 	cmpnei	r2,r2,65
   44074:	10000d1e 	bne	r2,zero,440ac <edid_decode_v14+0x15f4>
				edid->descriptors[i].detailed_timing.stereo |= STEREO_2WAY_INTERLEAVE_LEFT_EVEN;
   44078:	e0fffe17 	ldw	r3,-8(fp)
   4407c:	e0bffa17 	ldw	r2,-24(fp)
   44080:	10815c24 	muli	r2,r2,1392
   44084:	1885883a 	add	r2,r3,r2
   44088:	1080a804 	addi	r2,r2,672
   4408c:	10800017 	ldw	r2,0(r2)
   44090:	10c00414 	ori	r3,r2,16
   44094:	e13ffe17 	ldw	r4,-8(fp)
   44098:	e0bffa17 	ldw	r2,-24(fp)
   4409c:	10815c24 	muli	r2,r2,1392
   440a0:	2085883a 	add	r2,r4,r2
   440a4:	1080a804 	addi	r2,r2,672
   440a8:	10c00015 	stw	r3,0(r2)
			if ((c[17] & 0x61) == 0x60)
   440ac:	e0bff817 	ldw	r2,-32(fp)
   440b0:	10800444 	addi	r2,r2,17
   440b4:	10800003 	ldbu	r2,0(r2)
   440b8:	10803fcc 	andi	r2,r2,255
   440bc:	1080184c 	andi	r2,r2,97
   440c0:	10801818 	cmpnei	r2,r2,96
   440c4:	10000d1e 	bne	r2,zero,440fc <edid_decode_v14+0x1644>
				edid->descriptors[i].detailed_timing.stereo |= STEREO_4WAY_INTERLEAVE;
   440c8:	e0fffe17 	ldw	r3,-8(fp)
   440cc:	e0bffa17 	ldw	r2,-24(fp)
   440d0:	10815c24 	muli	r2,r2,1392
   440d4:	1885883a 	add	r2,r3,r2
   440d8:	1080a804 	addi	r2,r2,672
   440dc:	10800017 	ldw	r2,0(r2)
   440e0:	10c00814 	ori	r3,r2,32
   440e4:	e13ffe17 	ldw	r4,-8(fp)
   440e8:	e0bffa17 	ldw	r2,-24(fp)
   440ec:	10815c24 	muli	r2,r2,1392
   440f0:	2085883a 	add	r2,r4,r2
   440f4:	1080a804 	addi	r2,r2,672
   440f8:	10c00015 	stw	r3,0(r2)
			if ((c[17] & 0x61) == 0x61)
   440fc:	e0bff817 	ldw	r2,-32(fp)
   44100:	10800444 	addi	r2,r2,17
   44104:	10800003 	ldbu	r2,0(r2)
   44108:	10803fcc 	andi	r2,r2,255
   4410c:	1080184c 	andi	r2,r2,97
   44110:	10801858 	cmpnei	r2,r2,97
   44114:	10000d1e 	bne	r2,zero,4414c <edid_decode_v14+0x1694>
				edid->descriptors[i].detailed_timing.stereo |= STEREO_SIDE_BY_SIDE_INTERLEAVE;
   44118:	e0fffe17 	ldw	r3,-8(fp)
   4411c:	e0bffa17 	ldw	r2,-24(fp)
   44120:	10815c24 	muli	r2,r2,1392
   44124:	1885883a 	add	r2,r3,r2
   44128:	1080a804 	addi	r2,r2,672
   4412c:	10800017 	ldw	r2,0(r2)
   44130:	10c01014 	ori	r3,r2,64
   44134:	e13ffe17 	ldw	r4,-8(fp)
   44138:	e0bffa17 	ldw	r2,-24(fp)
   4413c:	10815c24 	muli	r2,r2,1392
   44140:	2085883a 	add	r2,r4,r2
   44144:	1080a804 	addi	r2,r2,672
   44148:	10c00015 	stw	r3,0(r2)

			edid->descriptors[i].detailed_timing.sync = 0;
   4414c:	e0fffe17 	ldw	r3,-8(fp)
   44150:	e0bffa17 	ldw	r2,-24(fp)
   44154:	10815c24 	muli	r2,r2,1392
   44158:	1885883a 	add	r2,r3,r2
   4415c:	1080a904 	addi	r2,r2,676
   44160:	10000015 	stw	zero,0(r2)
            if (c[17] & 0x10) {
   44164:	e0bff817 	ldw	r2,-32(fp)
   44168:	10800444 	addi	r2,r2,17
   4416c:	10800003 	ldbu	r2,0(r2)
   44170:	10803fcc 	andi	r2,r2,255
   44174:	1080040c 	andi	r2,r2,16
   44178:	10005626 	beq	r2,zero,442d4 <edid_decode_v14+0x181c>
                if (c[17] & 0x08) {
   4417c:	e0bff817 	ldw	r2,-32(fp)
   44180:	10800444 	addi	r2,r2,17
   44184:	10800003 	ldbu	r2,0(r2)
   44188:	10803fcc 	andi	r2,r2,255
   4418c:	1080020c 	andi	r2,r2,8
   44190:	10002f26 	beq	r2,zero,44250 <edid_decode_v14+0x1798>
                	edid->descriptors[i].detailed_timing.sync |= D_SEPERATE_SYNC;
   44194:	e0fffe17 	ldw	r3,-8(fp)
   44198:	e0bffa17 	ldw	r2,-24(fp)
   4419c:	10815c24 	muli	r2,r2,1392
   441a0:	1885883a 	add	r2,r3,r2
   441a4:	1080a904 	addi	r2,r2,676
   441a8:	10800017 	ldw	r2,0(r2)
   441ac:	10c02014 	ori	r3,r2,128
   441b0:	e13ffe17 	ldw	r4,-8(fp)
   441b4:	e0bffa17 	ldw	r2,-24(fp)
   441b8:	10815c24 	muli	r2,r2,1392
   441bc:	2085883a 	add	r2,r4,r2
   441c0:	1080a904 	addi	r2,r2,676
   441c4:	10c00015 	stw	r3,0(r2)
                	if (c[17] & 0x04)
   441c8:	e0bff817 	ldw	r2,-32(fp)
   441cc:	10800444 	addi	r2,r2,17
   441d0:	10800003 	ldbu	r2,0(r2)
   441d4:	10803fcc 	andi	r2,r2,255
   441d8:	1080010c 	andi	r2,r2,4
   441dc:	10000e26 	beq	r2,zero,44218 <edid_decode_v14+0x1760>
                    	edid->descriptors[i].detailed_timing.sync |= D_SEPERATE_VSYNC_P;
   441e0:	e0fffe17 	ldw	r3,-8(fp)
   441e4:	e0bffa17 	ldw	r2,-24(fp)
   441e8:	10815c24 	muli	r2,r2,1392
   441ec:	1885883a 	add	r2,r3,r2
   441f0:	1080a904 	addi	r2,r2,676
   441f4:	10800017 	ldw	r2,0(r2)
   441f8:	10c08014 	ori	r3,r2,512
   441fc:	e13ffe17 	ldw	r4,-8(fp)
   44200:	e0bffa17 	ldw	r2,-24(fp)
   44204:	10815c24 	muli	r2,r2,1392
   44208:	2085883a 	add	r2,r4,r2
   4420c:	1080a904 	addi	r2,r2,676
   44210:	10c00015 	stw	r3,0(r2)
				edid->descriptors[i].detailed_timing.stereo |= STEREO_4WAY_INTERLEAVE;
			if ((c[17] & 0x61) == 0x61)
				edid->descriptors[i].detailed_timing.stereo |= STEREO_SIDE_BY_SIDE_INTERLEAVE;

			edid->descriptors[i].detailed_timing.sync = 0;
            if (c[17] & 0x10) {
   44214:	000a4306 	br	46b24 <edid_decode_v14+0x406c>
                if (c[17] & 0x08) {
                	edid->descriptors[i].detailed_timing.sync |= D_SEPERATE_SYNC;
                	if (c[17] & 0x04)
                    	edid->descriptors[i].detailed_timing.sync |= D_SEPERATE_VSYNC_P;
                	else
                		edid->descriptors[i].detailed_timing.sync |= D_SEPERATE_VSYNC_N;
   44218:	e0fffe17 	ldw	r3,-8(fp)
   4421c:	e0bffa17 	ldw	r2,-24(fp)
   44220:	10815c24 	muli	r2,r2,1392
   44224:	1885883a 	add	r2,r3,r2
   44228:	1080a904 	addi	r2,r2,676
   4422c:	10800017 	ldw	r2,0(r2)
   44230:	10c04014 	ori	r3,r2,256
   44234:	e13ffe17 	ldw	r4,-8(fp)
   44238:	e0bffa17 	ldw	r2,-24(fp)
   4423c:	10815c24 	muli	r2,r2,1392
   44240:	2085883a 	add	r2,r4,r2
   44244:	1080a904 	addi	r2,r2,676
   44248:	10c00015 	stw	r3,0(r2)
				edid->descriptors[i].detailed_timing.stereo |= STEREO_4WAY_INTERLEAVE;
			if ((c[17] & 0x61) == 0x61)
				edid->descriptors[i].detailed_timing.stereo |= STEREO_SIDE_BY_SIDE_INTERLEAVE;

			edid->descriptors[i].detailed_timing.sync = 0;
            if (c[17] & 0x10) {
   4424c:	000a3506 	br	46b24 <edid_decode_v14+0x406c>
                	if (c[17] & 0x04)
                    	edid->descriptors[i].detailed_timing.sync |= D_SEPERATE_VSYNC_P;
                	else
                		edid->descriptors[i].detailed_timing.sync |= D_SEPERATE_VSYNC_N;
                } else {
                	edid->descriptors[i].detailed_timing.sync |= D_COMPOSITE_SYNC;
   44250:	e0fffe17 	ldw	r3,-8(fp)
   44254:	e0bffa17 	ldw	r2,-24(fp)
   44258:	10815c24 	muli	r2,r2,1392
   4425c:	1885883a 	add	r2,r3,r2
   44260:	1080a904 	addi	r2,r2,676
   44264:	10800017 	ldw	r2,0(r2)
   44268:	10c00814 	ori	r3,r2,32
   4426c:	e13ffe17 	ldw	r4,-8(fp)
   44270:	e0bffa17 	ldw	r2,-24(fp)
   44274:	10815c24 	muli	r2,r2,1392
   44278:	2085883a 	add	r2,r4,r2
   4427c:	1080a904 	addi	r2,r2,676
   44280:	10c00015 	stw	r3,0(r2)
                	if (c[17] & 0x04)
   44284:	e0bff817 	ldw	r2,-32(fp)
   44288:	10800444 	addi	r2,r2,17
   4428c:	10800003 	ldbu	r2,0(r2)
   44290:	10803fcc 	andi	r2,r2,255
   44294:	1080010c 	andi	r2,r2,4
   44298:	100a2226 	beq	r2,zero,46b24 <edid_decode_v14+0x406c>
                    	edid->descriptors[i].detailed_timing.sync |= D_COMPOSITE_SERRATION;
   4429c:	e0fffe17 	ldw	r3,-8(fp)
   442a0:	e0bffa17 	ldw	r2,-24(fp)
   442a4:	10815c24 	muli	r2,r2,1392
   442a8:	1885883a 	add	r2,r3,r2
   442ac:	1080a904 	addi	r2,r2,676
   442b0:	10800017 	ldw	r2,0(r2)
   442b4:	10c01014 	ori	r3,r2,64
   442b8:	e13ffe17 	ldw	r4,-8(fp)
   442bc:	e0bffa17 	ldw	r2,-24(fp)
   442c0:	10815c24 	muli	r2,r2,1392
   442c4:	2085883a 	add	r2,r4,r2
   442c8:	1080a904 	addi	r2,r2,676
   442cc:	10c00015 	stw	r3,0(r2)
				edid->descriptors[i].detailed_timing.stereo |= STEREO_4WAY_INTERLEAVE;
			if ((c[17] & 0x61) == 0x61)
				edid->descriptors[i].detailed_timing.stereo |= STEREO_SIDE_BY_SIDE_INTERLEAVE;

			edid->descriptors[i].detailed_timing.sync = 0;
            if (c[17] & 0x10) {
   442d0:	000a1406 	br	46b24 <edid_decode_v14+0x406c>
                	edid->descriptors[i].detailed_timing.sync |= D_COMPOSITE_SYNC;
                	if (c[17] & 0x04)
                    	edid->descriptors[i].detailed_timing.sync |= D_COMPOSITE_SERRATION;
                }
            } else {
            	if (c[17] & 0x80) {
   442d4:	e0bff817 	ldw	r2,-32(fp)
   442d8:	10800444 	addi	r2,r2,17
   442dc:	10800003 	ldbu	r2,0(r2)
   442e0:	10803fcc 	andi	r2,r2,255
   442e4:	1080201c 	xori	r2,r2,128
   442e8:	10bfe004 	addi	r2,r2,-128
   442ec:	1000420e 	bge	r2,zero,443f8 <edid_decode_v14+0x1940>
            		edid->descriptors[i].detailed_timing.sync |= A_BIPOLAR_COMPOSITE_SYNC;
   442f0:	e0fffe17 	ldw	r3,-8(fp)
   442f4:	e0bffa17 	ldw	r2,-24(fp)
   442f8:	10815c24 	muli	r2,r2,1392
   442fc:	1885883a 	add	r2,r3,r2
   44300:	1080a904 	addi	r2,r2,676
   44304:	10800017 	ldw	r2,0(r2)
   44308:	10c00094 	ori	r3,r2,2
   4430c:	e13ffe17 	ldw	r4,-8(fp)
   44310:	e0bffa17 	ldw	r2,-24(fp)
   44314:	10815c24 	muli	r2,r2,1392
   44318:	2085883a 	add	r2,r4,r2
   4431c:	1080a904 	addi	r2,r2,676
   44320:	10c00015 	stw	r3,0(r2)
            		if (c[17] & 0x40) {
   44324:	e0bff817 	ldw	r2,-32(fp)
   44328:	10800444 	addi	r2,r2,17
   4432c:	10800003 	ldbu	r2,0(r2)
   44330:	10803fcc 	andi	r2,r2,255
   44334:	1080100c 	andi	r2,r2,64
   44338:	1009fa26 	beq	r2,zero,46b24 <edid_decode_v14+0x406c>
                		edid->descriptors[i].detailed_timing.sync |= A_BIPOLAR_SERRATION;
   4433c:	e0fffe17 	ldw	r3,-8(fp)
   44340:	e0bffa17 	ldw	r2,-24(fp)
   44344:	10815c24 	muli	r2,r2,1392
   44348:	1885883a 	add	r2,r3,r2
   4434c:	1080a904 	addi	r2,r2,676
   44350:	10800017 	ldw	r2,0(r2)
   44354:	10c00114 	ori	r3,r2,4
   44358:	e13ffe17 	ldw	r4,-8(fp)
   4435c:	e0bffa17 	ldw	r2,-24(fp)
   44360:	10815c24 	muli	r2,r2,1392
   44364:	2085883a 	add	r2,r4,r2
   44368:	1080a904 	addi	r2,r2,676
   4436c:	10c00015 	stw	r3,0(r2)
                		if (c[17] & 0x20)
   44370:	e0bff817 	ldw	r2,-32(fp)
   44374:	10800444 	addi	r2,r2,17
   44378:	10800003 	ldbu	r2,0(r2)
   4437c:	10803fcc 	andi	r2,r2,255
   44380:	1080080c 	andi	r2,r2,32
   44384:	10000e26 	beq	r2,zero,443c0 <edid_decode_v14+0x1908>
                    		edid->descriptors[i].detailed_timing.sync |= A_BIPOLAR_SERRATION_SYNC_RGB;
   44388:	e0fffe17 	ldw	r3,-8(fp)
   4438c:	e0bffa17 	ldw	r2,-24(fp)
   44390:	10815c24 	muli	r2,r2,1392
   44394:	1885883a 	add	r2,r3,r2
   44398:	1080a904 	addi	r2,r2,676
   4439c:	10800017 	ldw	r2,0(r2)
   443a0:	10c00414 	ori	r3,r2,16
   443a4:	e13ffe17 	ldw	r4,-8(fp)
   443a8:	e0bffa17 	ldw	r2,-24(fp)
   443ac:	10815c24 	muli	r2,r2,1392
   443b0:	2085883a 	add	r2,r4,r2
   443b4:	1080a904 	addi	r2,r2,676
   443b8:	10c00015 	stw	r3,0(r2)
				edid->descriptors[i].detailed_timing.stereo |= STEREO_4WAY_INTERLEAVE;
			if ((c[17] & 0x61) == 0x61)
				edid->descriptors[i].detailed_timing.stereo |= STEREO_SIDE_BY_SIDE_INTERLEAVE;

			edid->descriptors[i].detailed_timing.sync = 0;
            if (c[17] & 0x10) {
   443bc:	0009d906 	br	46b24 <edid_decode_v14+0x406c>
            		if (c[17] & 0x40) {
                		edid->descriptors[i].detailed_timing.sync |= A_BIPOLAR_SERRATION;
                		if (c[17] & 0x20)
                    		edid->descriptors[i].detailed_timing.sync |= A_BIPOLAR_SERRATION_SYNC_RGB;
                		else
                    		edid->descriptors[i].detailed_timing.sync |= A_BIPOLAR_SERRATION_SYNC_G;
   443c0:	e0fffe17 	ldw	r3,-8(fp)
   443c4:	e0bffa17 	ldw	r2,-24(fp)
   443c8:	10815c24 	muli	r2,r2,1392
   443cc:	1885883a 	add	r2,r3,r2
   443d0:	1080a904 	addi	r2,r2,676
   443d4:	10800017 	ldw	r2,0(r2)
   443d8:	10c00214 	ori	r3,r2,8
   443dc:	e13ffe17 	ldw	r4,-8(fp)
   443e0:	e0bffa17 	ldw	r2,-24(fp)
   443e4:	10815c24 	muli	r2,r2,1392
   443e8:	2085883a 	add	r2,r4,r2
   443ec:	1080a904 	addi	r2,r2,676
   443f0:	10c00015 	stw	r3,0(r2)
				edid->descriptors[i].detailed_timing.stereo |= STEREO_4WAY_INTERLEAVE;
			if ((c[17] & 0x61) == 0x61)
				edid->descriptors[i].detailed_timing.stereo |= STEREO_SIDE_BY_SIDE_INTERLEAVE;

			edid->descriptors[i].detailed_timing.sync = 0;
            if (c[17] & 0x10) {
   443f4:	0009cb06 	br	46b24 <edid_decode_v14+0x406c>
                    		edid->descriptors[i].detailed_timing.sync |= A_BIPOLAR_SERRATION_SYNC_RGB;
                		else
                    		edid->descriptors[i].detailed_timing.sync |= A_BIPOLAR_SERRATION_SYNC_G;
            		}
            	} else {
            		edid->descriptors[i].detailed_timing.sync |= A_COMPOSITE_SYNC;
   443f8:	e0fffe17 	ldw	r3,-8(fp)
   443fc:	e0bffa17 	ldw	r2,-24(fp)
   44400:	10815c24 	muli	r2,r2,1392
   44404:	1885883a 	add	r2,r3,r2
   44408:	1080a904 	addi	r2,r2,676
   4440c:	10800017 	ldw	r2,0(r2)
   44410:	10c00054 	ori	r3,r2,1
   44414:	e13ffe17 	ldw	r4,-8(fp)
   44418:	e0bffa17 	ldw	r2,-24(fp)
   4441c:	10815c24 	muli	r2,r2,1392
   44420:	2085883a 	add	r2,r4,r2
   44424:	1080a904 	addi	r2,r2,676
   44428:	10c00015 	stw	r3,0(r2)
				edid->descriptors[i].detailed_timing.stereo |= STEREO_4WAY_INTERLEAVE;
			if ((c[17] & 0x61) == 0x61)
				edid->descriptors[i].detailed_timing.stereo |= STEREO_SIDE_BY_SIDE_INTERLEAVE;

			edid->descriptors[i].detailed_timing.sync = 0;
            if (c[17] & 0x10) {
   4442c:	0009bd06 	br	46b24 <edid_decode_v14+0x406c>
            }

        } else {
        	// display descriptor

        	edid->descriptors[i].type = DT_DISPLAY_DESCRIPTOR;
   44430:	e0fffe17 	ldw	r3,-8(fp)
   44434:	e0bffa17 	ldw	r2,-24(fp)
   44438:	10815c24 	muli	r2,r2,1392
   4443c:	1885883a 	add	r2,r3,r2
   44440:	10809804 	addi	r2,r2,608
   44444:	00c00044 	movi	r3,1
   44448:	10c00015 	stw	r3,0(r2)

        	switch (c[3]) {  // tag
   4444c:	e0bff817 	ldw	r2,-32(fp)
   44450:	108000c4 	addi	r2,r2,3
   44454:	10800003 	ldbu	r2,0(r2)
   44458:	10803fcc 	andi	r2,r2,255
   4445c:	10c03ea0 	cmpeqi	r3,r2,250
   44460:	18047e1e 	bne	r3,zero,4565c <edid_decode_v14+0x2ba4>
   44464:	10c03ec8 	cmpgei	r3,r2,251
   44468:	18000c1e 	bne	r3,zero,4449c <edid_decode_v14+0x19e4>
   4446c:	10c03de0 	cmpeqi	r3,r2,247
   44470:	1806dc1e 	bne	r3,zero,45fe4 <edid_decode_v14+0x352c>
   44474:	10c03e08 	cmpgei	r3,r2,248
   44478:	1800031e 	bne	r3,zero,44488 <edid_decode_v14+0x19d0>
   4447c:	10800420 	cmpeqi	r2,r2,16
   44480:	1009a01e 	bne	r2,zero,46b04 <edid_decode_v14+0x404c>

            case 0x10:
            	edid->descriptors[i].tag = DTAG_DUMMY;
                break;
            default:
                break;
   44484:	0009aa06 	br	46b30 <edid_decode_v14+0x4078>
        } else {
        	// display descriptor

        	edid->descriptors[i].type = DT_DISPLAY_DESCRIPTOR;

        	switch (c[3]) {  // tag
   44488:	10c03e20 	cmpeqi	r3,r2,248
   4448c:	1805621e 	bne	r3,zero,45a18 <edid_decode_v14+0x2f60>
   44490:	10803e60 	cmpeqi	r2,r2,249
   44494:	1004e81e 	bne	r2,zero,45838 <edid_decode_v14+0x2d80>

            case 0x10:
            	edid->descriptors[i].tag = DTAG_DUMMY;
                break;
            default:
                break;
   44498:	0009a506 	br	46b30 <edid_decode_v14+0x4078>
        } else {
        	// display descriptor

        	edid->descriptors[i].type = DT_DISPLAY_DESCRIPTOR;

        	switch (c[3]) {  // tag
   4449c:	10c03f60 	cmpeqi	r3,r2,253
   444a0:	1800781e 	bne	r3,zero,44684 <edid_decode_v14+0x1bcc>
   444a4:	10c03f88 	cmpgei	r3,r2,254
   444a8:	1800051e 	bne	r3,zero,444c0 <edid_decode_v14+0x1a08>
   444ac:	10c03ee0 	cmpeqi	r3,r2,251
   444b0:	1803b41e 	bne	r3,zero,45384 <edid_decode_v14+0x28cc>
   444b4:	10803f20 	cmpeqi	r2,r2,252
   444b8:	10037c1e 	bne	r2,zero,452ac <edid_decode_v14+0x27f4>

            case 0x10:
            	edid->descriptors[i].tag = DTAG_DUMMY;
                break;
            default:
                break;
   444bc:	00099c06 	br	46b30 <edid_decode_v14+0x4078>
        } else {
        	// display descriptor

        	edid->descriptors[i].type = DT_DISPLAY_DESCRIPTOR;

        	switch (c[3]) {  // tag
   444c0:	10c03fa0 	cmpeqi	r3,r2,254
   444c4:	1800391e 	bne	r3,zero,445ac <edid_decode_v14+0x1af4>
   444c8:	10803fe0 	cmpeqi	r2,r2,255
   444cc:	1000011e 	bne	r2,zero,444d4 <edid_decode_v14+0x1a1c>

            case 0x10:
            	edid->descriptors[i].tag = DTAG_DUMMY;
                break;
            default:
                break;
   444d0:	00099706 	br	46b30 <edid_decode_v14+0x4078>

        	edid->descriptors[i].type = DT_DISPLAY_DESCRIPTOR;

        	switch (c[3]) {  // tag
            case 0xff:
            	edid->descriptors[i].tag = DTAG_PRODUCT_SERIAL;
   444d4:	e0fffe17 	ldw	r3,-8(fp)
   444d8:	e0bffa17 	ldw	r2,-24(fp)
   444dc:	10815c24 	muli	r2,r2,1392
   444e0:	1885883a 	add	r2,r3,r2
   444e4:	10809904 	addi	r2,r2,612
   444e8:	00c03fc4 	movi	r3,255
   444ec:	10c00015 	stw	r3,0(r2)
            	edid->descriptors[i].serial[18] = 0;
   444f0:	e0fffe17 	ldw	r3,-8(fp)
   444f4:	e0bffa17 	ldw	r2,-24(fp)
   444f8:	10815c24 	muli	r2,r2,1392
   444fc:	1885883a 	add	r2,r3,r2
   44500:	10809e84 	addi	r2,r2,634
   44504:	10000005 	stb	zero,0(r2)
            	memcpy(edid->descriptors[i].serial, &c[5], 18-5);
   44508:	e0bffa17 	ldw	r2,-24(fp)
   4450c:	10815c24 	muli	r2,r2,1392
   44510:	10809a04 	addi	r2,r2,616
   44514:	e0fffe17 	ldw	r3,-8(fp)
   44518:	1887883a 	add	r3,r3,r2
   4451c:	e0bff817 	ldw	r2,-32(fp)
   44520:	10800144 	addi	r2,r2,5
   44524:	01800344 	movi	r6,13
   44528:	100b883a 	mov	r5,r2
   4452c:	1809883a 	mov	r4,r3
   44530:	004d6080 	call	4d608 <memcpy>
                for (s = 0; s < 18-5; ++s) {
   44534:	e03ffb15 	stw	zero,-20(fp)
   44538:	00001806 	br	4459c <edid_decode_v14+0x1ae4>
                    if (edid->descriptors[i].serial[s] == 0x0a) {
   4453c:	e0fffe17 	ldw	r3,-8(fp)
   44540:	e0bffa17 	ldw	r2,-24(fp)
   44544:	10815c24 	muli	r2,r2,1392
   44548:	1887883a 	add	r3,r3,r2
   4454c:	e0bffb17 	ldw	r2,-20(fp)
   44550:	1885883a 	add	r2,r3,r2
   44554:	10809a04 	addi	r2,r2,616
   44558:	10800003 	ldbu	r2,0(r2)
   4455c:	10803fcc 	andi	r2,r2,255
   44560:	1080201c 	xori	r2,r2,128
   44564:	10bfe004 	addi	r2,r2,-128
   44568:	10800298 	cmpnei	r2,r2,10
   4456c:	1000081e 	bne	r2,zero,44590 <edid_decode_v14+0x1ad8>
                    	edid->descriptors[i].serial[s] = 0;
   44570:	e0fffe17 	ldw	r3,-8(fp)
   44574:	e0bffa17 	ldw	r2,-24(fp)
   44578:	10815c24 	muli	r2,r2,1392
   4457c:	1887883a 	add	r3,r3,r2
   44580:	e0bffb17 	ldw	r2,-20(fp)
   44584:	1885883a 	add	r2,r3,r2
   44588:	10809a04 	addi	r2,r2,616
   4458c:	10000005 	stb	zero,0(r2)
        	switch (c[3]) {  // tag
            case 0xff:
            	edid->descriptors[i].tag = DTAG_PRODUCT_SERIAL;
            	edid->descriptors[i].serial[18] = 0;
            	memcpy(edid->descriptors[i].serial, &c[5], 18-5);
                for (s = 0; s < 18-5; ++s) {
   44590:	e0bffb17 	ldw	r2,-20(fp)
   44594:	10800044 	addi	r2,r2,1
   44598:	e0bffb15 	stw	r2,-20(fp)
   4459c:	e0bffb17 	ldw	r2,-20(fp)
   445a0:	10800350 	cmplti	r2,r2,13
   445a4:	103fe51e 	bne	r2,zero,4453c <__alt_data_end+0xfffd861c>
                    if (edid->descriptors[i].serial[s] == 0x0a) {
                    	edid->descriptors[i].serial[s] = 0;
                    }
                }
                break;
   445a8:	00096106 	br	46b30 <edid_decode_v14+0x4078>

            case 0xfe:
            	edid->descriptors[i].tag = DTAG_DATA_STRING;
   445ac:	e0fffe17 	ldw	r3,-8(fp)
   445b0:	e0bffa17 	ldw	r2,-24(fp)
   445b4:	10815c24 	muli	r2,r2,1392
   445b8:	1885883a 	add	r2,r3,r2
   445bc:	10809904 	addi	r2,r2,612
   445c0:	00c03f84 	movi	r3,254
   445c4:	10c00015 	stw	r3,0(r2)
            	edid->descriptors[i].string[18] = 0;
   445c8:	e0fffe17 	ldw	r3,-8(fp)
   445cc:	e0bffa17 	ldw	r2,-24(fp)
   445d0:	10815c24 	muli	r2,r2,1392
   445d4:	1885883a 	add	r2,r3,r2
   445d8:	10809e84 	addi	r2,r2,634
   445dc:	10000005 	stb	zero,0(r2)
            	memcpy(edid->descriptors[i].string, &c[5], 18-5);
   445e0:	e0bffa17 	ldw	r2,-24(fp)
   445e4:	10815c24 	muli	r2,r2,1392
   445e8:	10809a04 	addi	r2,r2,616
   445ec:	e0fffe17 	ldw	r3,-8(fp)
   445f0:	1887883a 	add	r3,r3,r2
   445f4:	e0bff817 	ldw	r2,-32(fp)
   445f8:	10800144 	addi	r2,r2,5
   445fc:	01800344 	movi	r6,13
   44600:	100b883a 	mov	r5,r2
   44604:	1809883a 	mov	r4,r3
   44608:	004d6080 	call	4d608 <memcpy>
                for (s = 0; s < 18-5; ++s) {
   4460c:	e03ffb15 	stw	zero,-20(fp)
   44610:	00001806 	br	44674 <edid_decode_v14+0x1bbc>
                    if (edid->descriptors[i].string[s] == 0x0a) {
   44614:	e0fffe17 	ldw	r3,-8(fp)
   44618:	e0bffa17 	ldw	r2,-24(fp)
   4461c:	10815c24 	muli	r2,r2,1392
   44620:	1887883a 	add	r3,r3,r2
   44624:	e0bffb17 	ldw	r2,-20(fp)
   44628:	1885883a 	add	r2,r3,r2
   4462c:	10809a04 	addi	r2,r2,616
   44630:	10800003 	ldbu	r2,0(r2)
   44634:	10803fcc 	andi	r2,r2,255
   44638:	1080201c 	xori	r2,r2,128
   4463c:	10bfe004 	addi	r2,r2,-128
   44640:	10800298 	cmpnei	r2,r2,10
   44644:	1000081e 	bne	r2,zero,44668 <edid_decode_v14+0x1bb0>
                    	edid->descriptors[i].string[s] = 0;
   44648:	e0fffe17 	ldw	r3,-8(fp)
   4464c:	e0bffa17 	ldw	r2,-24(fp)
   44650:	10815c24 	muli	r2,r2,1392
   44654:	1887883a 	add	r3,r3,r2
   44658:	e0bffb17 	ldw	r2,-20(fp)
   4465c:	1885883a 	add	r2,r3,r2
   44660:	10809a04 	addi	r2,r2,616
   44664:	10000005 	stb	zero,0(r2)

            case 0xfe:
            	edid->descriptors[i].tag = DTAG_DATA_STRING;
            	edid->descriptors[i].string[18] = 0;
            	memcpy(edid->descriptors[i].string, &c[5], 18-5);
                for (s = 0; s < 18-5; ++s) {
   44668:	e0bffb17 	ldw	r2,-20(fp)
   4466c:	10800044 	addi	r2,r2,1
   44670:	e0bffb15 	stw	r2,-20(fp)
   44674:	e0bffb17 	ldw	r2,-20(fp)
   44678:	10800350 	cmplti	r2,r2,13
   4467c:	103fe51e 	bne	r2,zero,44614 <__alt_data_end+0xfffd86f4>
                    if (edid->descriptors[i].string[s] == 0x0a) {
                    	edid->descriptors[i].string[s] = 0;
                    }
                }
                break;
   44680:	00092b06 	br	46b30 <edid_decode_v14+0x4078>

            case 0xfd:
            	edid->descriptors[i].tag = DTAG_RANGE_LIMIT;
   44684:	e0fffe17 	ldw	r3,-8(fp)
   44688:	e0bffa17 	ldw	r2,-24(fp)
   4468c:	10815c24 	muli	r2,r2,1392
   44690:	1885883a 	add	r2,r3,r2
   44694:	10809904 	addi	r2,r2,612
   44698:	00c03f44 	movi	r3,253
   4469c:	10c00015 	stw	r3,0(r2)

            	edid->descriptors[i].range_limits.h_offset = HRO_ZERO;
   446a0:	e0fffe17 	ldw	r3,-8(fp)
   446a4:	e0bffa17 	ldw	r2,-24(fp)
   446a8:	10815c24 	muli	r2,r2,1392
   446ac:	1885883a 	add	r2,r3,r2
   446b0:	10809b04 	addi	r2,r2,620
   446b4:	10000015 	stw	zero,0(r2)

            	switch (c[4] & 0xfc) {
   446b8:	e0bff817 	ldw	r2,-32(fp)
   446bc:	10800104 	addi	r2,r2,4
   446c0:	10800003 	ldbu	r2,0(r2)
   446c4:	10803fcc 	andi	r2,r2,255
   446c8:	10803f0c 	andi	r2,r2,252
   446cc:	10c00220 	cmpeqi	r3,r2,8
   446d0:	1800031e 	bne	r3,zero,446e0 <edid_decode_v14+0x1c28>
   446d4:	10800320 	cmpeqi	r2,r2,12
   446d8:	1000091e 	bne	r2,zero,44700 <edid_decode_v14+0x1c48>
   446dc:	00001006 	br	44720 <edid_decode_v14+0x1c68>
                case 0x08:
                	edid->descriptors[i].range_limits.h_offset = HRO_MAX_255_MIN_ZERO;
   446e0:	e0fffe17 	ldw	r3,-8(fp)
   446e4:	e0bffa17 	ldw	r2,-24(fp)
   446e8:	10815c24 	muli	r2,r2,1392
   446ec:	1885883a 	add	r2,r3,r2
   446f0:	10809b04 	addi	r2,r2,620
   446f4:	00c00044 	movi	r3,1
   446f8:	10c00015 	stw	r3,0(r2)
                    break;
   446fc:	00000806 	br	44720 <edid_decode_v14+0x1c68>
                case 0x0c:
                	edid->descriptors[i].range_limits.h_offset = HRO_MAX_255_MIN_255;
   44700:	e0fffe17 	ldw	r3,-8(fp)
   44704:	e0bffa17 	ldw	r2,-24(fp)
   44708:	10815c24 	muli	r2,r2,1392
   4470c:	1885883a 	add	r2,r3,r2
   44710:	10809b04 	addi	r2,r2,620
   44714:	00c00084 	movi	r3,2
   44718:	10c00015 	stw	r3,0(r2)
                    break;
   4471c:	0001883a 	nop
                }

            	edid->descriptors[i].range_limits.v_offset = VRO_ZERO;
   44720:	e0fffe17 	ldw	r3,-8(fp)
   44724:	e0bffa17 	ldw	r2,-24(fp)
   44728:	10815c24 	muli	r2,r2,1392
   4472c:	1885883a 	add	r2,r3,r2
   44730:	10809a04 	addi	r2,r2,616
   44734:	10000015 	stw	zero,0(r2)

                switch (c[4] & 0xf3) {
   44738:	e0bff817 	ldw	r2,-32(fp)
   4473c:	10800104 	addi	r2,r2,4
   44740:	10800003 	ldbu	r2,0(r2)
   44744:	10803fcc 	andi	r2,r2,255
   44748:	10803ccc 	andi	r2,r2,243
   4474c:	10c000a0 	cmpeqi	r3,r2,2
   44750:	1800031e 	bne	r3,zero,44760 <edid_decode_v14+0x1ca8>
   44754:	108000e0 	cmpeqi	r2,r2,3
   44758:	1000091e 	bne	r2,zero,44780 <edid_decode_v14+0x1cc8>
   4475c:	00001006 	br	447a0 <edid_decode_v14+0x1ce8>
                case 0x02:
                	edid->descriptors[i].range_limits.v_offset = VRO_MAX_255_MIN_ZERO;
   44760:	e0fffe17 	ldw	r3,-8(fp)
   44764:	e0bffa17 	ldw	r2,-24(fp)
   44768:	10815c24 	muli	r2,r2,1392
   4476c:	1885883a 	add	r2,r3,r2
   44770:	10809a04 	addi	r2,r2,616
   44774:	00c00044 	movi	r3,1
   44778:	10c00015 	stw	r3,0(r2)
                    break;
   4477c:	00000806 	br	447a0 <edid_decode_v14+0x1ce8>
                case 0x03:
                	edid->descriptors[i].range_limits.v_offset = VRO_MAX_255_MIN_255;
   44780:	e0fffe17 	ldw	r3,-8(fp)
   44784:	e0bffa17 	ldw	r2,-24(fp)
   44788:	10815c24 	muli	r2,r2,1392
   4478c:	1885883a 	add	r2,r3,r2
   44790:	10809a04 	addi	r2,r2,616
   44794:	00c00084 	movi	r3,2
   44798:	10c00015 	stw	r3,0(r2)
                    break;
   4479c:	0001883a 	nop
                }

                if (c[5] != 0) {
   447a0:	e0bff817 	ldw	r2,-32(fp)
   447a4:	10800144 	addi	r2,r2,5
   447a8:	10800003 	ldbu	r2,0(r2)
